(V3.4.0
p0
(lp1
(lp2
(dp3
Vfilename
p4
Vbench/apiviewer.js
p5
sVmessages
p6
(lp7
sVsizes
p8
(lp9
L974318L
aL974321L
aNaNaL974318L
aL974318L
asVsize
p10
L976049L
sVtimes
p11
(lp12
(Vsimple_port
p13
F2083.1353902816772
tp14
a(Vjsmin_2_0_9
p15
F2439.3776655197144
tp16
a(Vslimit_0_8_1
p17
Ntp18
a(Vslimit_0_8_1_mangle
p19
Ntp20
a(Vrjsmin
p21
F56.032085418701172
tp22
a(V_rjsmin
p23
F2.109837532043457
tp24
asa(dp25
g4
Vbench/bootstrap.js
p26
sg6
(lp27
sg8
(lp28
L27005L
aL27030L
aNaNaL27006L
aL27006L
asg10
L50212L
sg11
(lp29
(g13
F90.127682685852051
tp30
a(g15
F38.703489303588867
tp31
a(g17
Ntp32
a(g19
Ntp33
a(g21
F13.775801658630371
tp34
a(g23
F0.17111063003540039
tp35
asa(dp36
g4
Vbench/jquery-1.7.1.js
p37
sg6
(lp38
sg8
(lp39
L139170L
aL140054L
aNaNaL139170L
aL139170L
asg10
L248235L
sg11
(lp40
(g13
F468.93723011016846
tp41
a(g15
F251.11656188964844
tp42
a(g17
Ntp43
a(g19
Ntp44
a(g21
F95.541882514953613
tp45
a(g23
F1.1150598526000977
tp46
asa(dp47
g4
Vbench/knockout-2.0.0.js
p48
sg6
(lp49
sg8
(lp50
L39533L
aL39537L
aNaNaL39535L
aL39535L
asg10
L39817L
sg11
(lp51
(g13
F83.915615081787109
tp52
a(g15
F42.350482940673828
tp53
a(g17
Ntp54
a(g19
Ntp55
a(g21
F2.8724193572998047
tp56
a(g23
F0.093675136566162109
tp57
asa(dp58
g4
Vbench/markermanager.js
p59
sg6
(lp60
sg8
(lp61
L11853L
aL11871L
aL11744L
aL9499L
aL11853L
aL11853L
asg10
L29300L
sg11
(lp62
(g13
F44.583392143249512
tp63
a(g15
F19.179868698120117
tp64
a(g17
F149.82278347015381
tp65
a(g19
F174.04468059539795
tp66
a(g21
F5.8757543563842773
tp67
a(g23
F0.07880711555480957
tp68
asatp69
.(V3.3.3
p0
(lp1
(lp2
(dp3
Vmessages
p4
(lp5
sVtimes
p6
(lp7
(Vsimple_port
p8
F2805.1412105560303
tp9
a(Vjsmin_2_0_9
p10
F2741.7267322540283
tp11
a(Vslimit_0_8_1
p12
Ntp13
a(Vslimit_0_8_1_mangle
p14
Ntp15
a(Vrjsmin
p16
F75.857734680175781
tp17
a(V_rjsmin
p18
F2.142333984375
tp19
asVsizes
p20
(lp21
L974318L
aL974321L
aNaNaL974318L
aL974318L
asVsize
p22
L976049L
sVfilename
p23
Vbench/apiviewer.js
p24
sa(dp25
g4
(lp26
sg6
(lp27
(g8
F112.96069622039795
tp28
a(g10
F48.692488670349121
tp29
a(g12
Ntp30
a(g14
Ntp31
a(g16
F18.497610092163086
tp32
a(g18
F0.17931938171386719
tp33
asg20
(lp34
L27005L
aL27030L
aNaNaL27006L
aL27006L
asg22
L50212L
sg23
Vbench/bootstrap.js
p35
sa(dp36
g4
(lp37
sg6
(lp38
(g8
F596.73378467559814
tp39
a(g10
F309.94617938995361
tp40
a(g12
Ntp41
a(g14
Ntp42
a(g16
F127.04951763153076
tp43
a(g18
F1.1366605758666992
tp44
asg20
(lp45
L139170L
aL140054L
aNaNaL139170L
aL139170L
asg22
L248235L
sg23
Vbench/jquery-1.7.1.js
p46
sa(dp47
g4
(lp48
sg6
(lp49
(g8
F110.92624664306641
tp50
a(g10
F50.825166702270508
tp51
a(g12
Ntp52
a(g14
Ntp53
a(g16
F4.2016267776489258
tp54
a(g18
F0.097993135452270508
tp55
asg20
(lp56
L39533L
aL39537L
aNaNaL39535L
aL39535L
asg22
L39817L
sg23
Vbench/knockout-2.0.0.js
p57
sa(dp58
g4
(lp59
sg6
(lp60
(g8
F56.387209892272949
tp61
a(g10
F24.101090431213379
tp62
a(g12
F159.77544784545898
tp63
a(g14
F186.04114055633545
tp64
a(g16
F8.2972049713134766
tp65
a(g18
F0.082348346710205078
tp66
asg20
(lp67
L11853L
aL11871L
aL11744L
aL9499L
aL11853L
aL11853L
asg22
L29300L
sg23
Vbench/markermanager.js
p68
satp69
.(V3.2.5
p0
(lp1
(lp2
(dp3
Vtimes
p4
(lp5
(Vsimple_port
p6
F2372.5327014923096
tp7
a(Vjsmin_2_0_9
p8
F8911.8324041366577
tp9
a(Vslimit_0_8_1
p10
Ntp11
a(Vslimit_0_8_1_mangle
p12
Ntp13
a(Vrjsmin
p14
F68.914103507995605
tp15
a(V_rjsmin
p16
F1.9635915756225586
tp17
asVsize
p18
L976049L
sVmessages
p19
(lp20
sVsizes
p21
(lp22
L974318L
aL974321L
aNaNaL974318L
aL974318L
asVfilename
p23
Vbench/apiviewer.js
p24
sa(dp25
g4
(lp26
(g6
F97.795200347900391
tp27
a(g8
F44.315004348754883
tp28
a(g10
Ntp29
a(g12
Ntp30
a(g14
F16.99678897857666
tp31
a(g16
F0.17405986785888672
tp32
asg18
L50212L
sg19
(lp33
sg21
(lp34
L27005L
aL27030L
aNaNaL27006L
aL27006L
asg23
Vbench/bootstrap.js
p35
sa(dp36
g4
(lp37
(g6
F517.50168800354004
tp38
a(g8
F411.8527889251709
tp39
a(g10
Ntp40
a(g12
Ntp41
a(g14
F117.36359596252441
tp42
a(g16
F1.1134862899780273
tp43
asg18
L248235L
sg19
(lp44
sg21
(lp45
L139170L
aL140054L
aNaNaL139170L
aL139170L
asg23
Vbench/jquery-1.7.1.js
p46
sa(dp47
g4
(lp48
(g6
F95.015907287597656
tp49
a(g8
F48.908495903015137
tp50
a(g10
Ntp51
a(g12
Ntp52
a(g14
F3.8480997085571289
tp53
a(g16
F0.087301015853881836
tp54
asg18
L39817L
sg19
(lp55
sg21
(lp56
L39533L
aL39537L
aNaNaL39535L
aL39535L
asg23
Vbench/knockout-2.0.0.js
p57
sa(dp58
g4
(lp59
(g6
F48.134088516235352
tp60
a(g8
F20.644283294677734
tp61
a(g10
F150.11048316955566
tp62
a(g12
F177.11069583892822
tp63
a(g14
F7.3747873306274414
tp64
a(g16
F0.079402923583984375
tp65
asg18
L29300L
sg19
(lp66
sg21
(lp67
L11853L
aL11871L
aL11744L
aL9499L
aL11853L
aL11853L
asg23
Vbench/markermanager.js
p68
satp69
.(V3.1.5
p0
(lp1
(lp2
(dp3
Vtimes
p4
(lp5
(Vsimple_port
p6
F2418.9582824707031
tp7
a(Vjsmin_2_0_9
p8
F4455.0104856491089
tp9
a(Vslimit_0_8_1
p10
Ntp11
a(Vslimit_0_8_1_mangle
p12
Ntp13
a(Vrjsmin
p14
F61.650919914245605
tp15
a(V_rjsmin
p16
F1.8936872482299805
tp17
asVsize
p18
L976049L
sVmessages
p19
(lp20
sVsizes
p21
(lp22
L974318L
aL974321L
aNaNaL974318L
aL974318L
asVfilename
p23
Vbench/apiviewer.js
p24
sa(dp25
g4
(lp26
(g6
F102.86548137664795
tp27
a(g8
F50.258803367614746
tp28
a(g10
Ntp29
a(g12
Ntp30
a(g14
F15.096306800842285
tp31
a(g16
F0.17619132995605469
tp32
asg18
L50212L
sg19
(lp33
sg21
(lp34
L27005L
aL27030L
aNaNaL27006L
aL27006L
asg23
Vbench/bootstrap.js
p35
sa(dp36
g4
(lp37
(g6
F540.63289165496826
tp38
a(g8
F349.76809024810791
tp39
a(g10
Ntp40
a(g12
Ntp41
a(g14
F105.46431541442871
tp42
a(g16
F1.0930061340332031
tp43
asg18
L248235L
sg19
(lp44
sg21
(lp45
L139170L
aL140054L
aNaNaL139170L
aL139170L
asg23
Vbench/jquery-1.7.1.js
p46
sa(dp47
g4
(lp48
(g6
F96.748495101928711
tp49
a(g8
F53.24699878692627
tp50
a(g10
Ntp51
a(g12
Ntp52
a(g14
F3.4281015396118164
tp53
a(g16
F0.088205814361572266
tp54
asg18
L39817L
sg19
(lp55
sg21
(lp56
L39533L
aL39537L
aNaNaL39535L
aL39535L
asg23
Vbench/knockout-2.0.0.js
p57
sa(dp58
g4
(lp59
(g6
F50.980305671691895
tp60
a(g8
F26.185798645019531
tp61
a(g10
F137.83929347991943
tp62
a(g12
F159.43479537963867
tp63
a(g14
F6.4731836318969727
tp64
a(g16
F0.077250003814697266
tp65
asg18
L29300L
sg19
(lp66
sg21
(lp67
L11853L
aL11871L
aL11744L
aL9499L
aL11853L
aL11853L
asg23
Vbench/markermanager.js
p68
satp69
.(V3.0.1
p0
(lp1
Vslimit_0_8_1 not installed for python 3.0...
p2
a(lp3
(dp4
Vtimes
p5
(lp6
(Vsimple_port
p7
F6725.566291809082
tp8
a(Vjsmin_2_0_9
p9
F8824.6921062469482
tp10
a(Vrjsmin
p11
F60.967302322387695
tp12
a(V_rjsmin
p13
F1.9271135330200195
tp14
asVsize
p15
L976049L
sVmessages
p16
(lp17
sVsizes
p18
(lp19
L974318L
aL974321L
aL974318L
aL974318L
asVfilename
p20
Vbench/apiviewer.js
p21
sa(dp22
g5
(lp23
(g7
F294.92900371551514
tp24
a(g9
F238.16120624542236
tp25
a(g11
F15.677785873413086
tp26
a(g13
F0.16690969467163086
tp27
asg15
L50212L
sg16
(lp28
sg18
(lp29
L27005L
aL27030L
aL27006L
aL27006L
asg20
Vbench/bootstrap.js
p30
sa(dp31
g5
(lp32
(g7
F1495.376181602478
tp33
a(g9
F1315.1818990707397
tp34
a(g11
F108.74948501586914
tp35
a(g13
F1.0826826095581055
tp36
asg15
L248235L
sg16
(lp37
sg18
(lp38
L139170L
aL140054L
aL139170L
aL139170L
asg20
Vbench/jquery-1.7.1.js
p39
sa(dp40
g5
(lp41
(g7
F273.43361377716064
tp42
a(g9
F223.26798439025879
tp43
a(g11
F3.4012079238891602
tp44
a(g13
F0.088386058807373047
tp45
asg15
L39817L
sg16
(lp46
sg18
(lp47
L39533L
aL39537L
aL39535L
aL39535L
asg20
Vbench/knockout-2.0.0.js
p48
sa(dp49
g5
(lp50
(g7
F157.3328971862793
tp51
a(g9
F130.72640895843506
tp52
a(g11
F6.7128896713256836
tp53
a(g13
F0.076878070831298828
tp54
asg15
L29300L
sg16
(lp55
sg18
(lp56
L11853L
aL11871L
aL11853L
aL11853L
asg20
Vbench/markermanager.js
p57
satp58
.(S'2.7.5'
p0
(lp1
(lp2
(dp3
S'times'
p4
(lp5
(S'simple_port'
p6
F2960.9050989151
tp7
a(S'jsmin_2_0_9'
p8
F3087.2599124908447
tp9
a(S'slimit_0_8_1'
p10
F13520.482110977173
tp11
a(S'slimit_0_8_1_mangle'
p12
F16463.294005393982
tp13
a(S'rjsmin'
p14
F60.450005531311035
tp15
a(S'_rjsmin'
p16
F1.9175052642822266
tp17
asS'size'
p18
I976057
sS'messages'
p19
(lp20
sS'sizes'
p21
(lp22
I974326
aI974329
aI966977
aI945019
aI974326
aI974326
asS'filename'
p23
S'bench/apiviewer.js'
p24
sa(dp25
g4
(lp26
(g6
F118.81771087646484
tp27
a(g8
F60.822105407714844
tp28
a(g10
F379.6224117279053
tp29
a(g12
F404.05900478363037
tp30
a(g14
F15.942907333374023
tp31
a(g16
F0.17625093460083008
tp32
asg18
I50212
sg19
(lp33
sg21
(lp34
I27005
aI27030
aI27113
aI22724
aI27006
aI27006
asg23
S'bench/bootstrap.js'
p35
sa(dp36
g4
(lp37
(g6
F624.620509147644
tp38
a(g8
F370.85700035095215
tp39
a(g10
F1800.2933979034424
tp40
a(g12
F2129.264998435974
tp41
a(g14
F113.71088027954102
tp42
a(g16
F1.1162042617797852
tp43
asg18
I248235
sg19
(lp44
sg21
(lp45
I139170
aI140054
aI137236
aI97242
aI139170
aI139170
asg23
S'bench/jquery-1.7.1.js'
p46
sa(dp47
g4
(lp48
(g6
F118.5647964477539
tp49
a(g8
F67.28730201721191
tp50
a(g10
F703.9553880691528
tp51
a(g12
F844.4859027862549
tp52
a(g14
F3.3766984939575195
tp53
a(g16
F0.09203815460205078
tp54
asg18
I39817
sg19
(lp55
sg21
(lp56
I39533
aI39537
aI39927
aI39859
aI39535
aI39535
asg23
S'bench/knockout-2.0.0.js'
p57
sa(dp58
g4
(lp59
(g6
F59.0947151184082
tp60
a(g8
F30.782413482666016
tp61
a(g10
F145.1786994934082
tp62
a(g12
F164.8071050643921
tp63
a(g14
F6.941509246826172
tp64
a(g16
F0.08140087127685547
tp65
asg18
I29300
sg19
(lp66
sg21
(lp67
I11853
aI11871
aI11744
aI9499
aI11853
aI11853
asg23
S'bench/markermanager.js'
p68
satp69
.(S'2.6.8'
p0
(lp1
(lp2
(dp3
S'times'
p4
(lp5
(S'simple_port'
p6
F2666.590404510498
tp7
a(S'jsmin_2_0_9'
p8
F2628.6175012588501
tp9
a(S'slimit_0_8_1'
p10
F13410.384082794189
tp11
a(S'slimit_0_8_1_mangle'
p12
F16661.33770942688
tp13
a(S'rjsmin'
p14
F62.673306465148926
tp15
a(S'_rjsmin'
p16
F1.9212961196899414
tp17
asS'size'
p18
I976057
sS'messages'
p19
(lp20
sS'sizes'
p21
(lp22
I974326
aI974329
aI966977
aI945019
aI974326
aI974326
asS'filename'
p23
S'bench/apiviewer.js'
p24
sa(dp25
g4
(lp26
(g6
F109.21370983123779
tp27
a(g8
F48.999404907226562
tp28
a(g10
F380.12650012969971
tp29
a(g12
F409.64500904083252
tp30
a(g14
F16.142606735229492
tp31
a(g16
F0.17584085464477539
tp32
asg18
I50212
sg19
(lp33
sg21
(lp34
I27005
aI27030
aI27113
aI22724
aI27006
aI27006
asg23
S'bench/bootstrap.js'
p35
sa(dp36
g4
(lp37
(g6
F569.28870677947998
tp38
a(g8
F303.83892059326172
tp39
a(g10
F1775.1780033111572
tp40
a(g12
F2175.7039070129395
tp41
a(g14
F114.20180797576904
tp42
a(g16
F1.1429786682128906
tp43
asg18
I248235
sg19
(lp44
sg21
(lp45
I139170
aI140054
aI137236
aI97242
aI139170
aI139170
asg23
S'bench/jquery-1.7.1.js'
p46
sa(dp47
g4
(lp48
(g6
F106.62870407104492
tp49
a(g8
F52.695298194885254
tp50
a(g10
F698.61891269683838
tp51
a(g12
F865.01898765563965
tp52
a(g14
F3.5665035247802734
tp53
a(g16
F0.091907978057861328
tp54
asg18
I39817
sg19
(lp55
sg21
(lp56
I39533
aI39537
aI39927
aI39859
aI39535
aI39535
asg23
S'bench/knockout-2.0.0.js'
p57
sa(dp58
g4
(lp59
(g6
F54.437899589538574
tp60
a(g8
F25.405406951904297
tp61
a(g10
F137.57238388061523
tp62
a(g12
F172.31209278106689
tp63
a(g14
F6.9277048110961914
tp64
a(g16
F0.081102132797241211
tp65
asg18
I29300
sg19
(lp66
sg21
(lp67
I11853
aI11871
aI11744
aI9499
aI11853
aI11853
asg23
S'bench/markermanager.js'
p68
satp69
.(S'2.5.6'
p0
(lp1
(lp2
(dp3
S'times'
p4
(lp5
(S'simple_port'
p6
F2702.9875993728638
tp7
a(S'jsmin_2_0_9'
p8
F2716.8287992477417
tp9
a(S'slimit_0_8_1'
p10
F14369.85719203949
tp11
a(S'slimit_0_8_1_mangle'
p12
Ntp13
a(S'rjsmin'
p14
F57.95280933380127
tp15
a(S'_rjsmin'
p16
F1.8718957901000977
tp17
asS'size'
p18
I976057
sS'messages'
p19
(lp20
sS'sizes'
p21
(lp22
I974326
aI974329
aI966977
aNaI974326
aI974326
asS'filename'
p23
S'bench/apiviewer.js'
p24
sa(dp25
g4
(lp26
(g6
F109.86158847808838
tp27
a(g8
F51.665401458740234
tp28
a(g10
F364.03868198394775
tp29
a(g12
Ntp30
a(g14
F15.447115898132324
tp31
a(g16
F0.16829967498779297
tp32
asg18
I50212
sg19
(lp33
sg21
(lp34
I27005
aI27030
aI27113
aNaI27006
aI27006
asg23
S'bench/bootstrap.js'
p35
sa(dp36
g4
(lp37
(g6
F571.75350189208984
tp38
a(g8
F320.27959823608398
tp39
a(g10
F1744.61510181427
tp40
a(g12
Ntp41
a(g14
F108.43400955200195
tp42
a(g16
F1.111292839050293
tp43
asg18
I248235
sg19
(lp44
sg21
(lp45
I139170
aI140054
aI137236
aNaI139170
aI139170
asg23
S'bench/jquery-1.7.1.js'
p46
sa(dp47
g4
(lp48
(g6
F107.76190757751465
tp49
a(g8
F56.060791015625
tp50
a(g10
F685.51208972930908
tp51
a(g12
Ntp52
a(g14
F3.3423900604248047
tp53
a(g16
F0.088429927825927734
tp54
asg18
I39817
sg19
(lp55
sg21
(lp56
I39533
aI39537
aI39927
aNaI39535
aI39535
asg23
S'bench/knockout-2.0.0.js'
p57
sa(dp58
g4
(lp59
(g6
F54.275822639465332
tp60
a(g8
F26.700210571289062
tp61
a(g10
F142.60320663452148
tp62
a(g12
Ntp63
a(g14
F6.6625118255615234
tp64
a(g16
F0.079276084899902344
tp65
asg18
I29300
sg19
(lp66
sg21
(lp67
I11853
aI11871
aI11744
aNaI11853
aI11853
asg23
S'bench/markermanager.js'
p68
satp69
.(S'2.4.6'
p0
(lp1
S'slimit_0_8_1 not installed for python 2.4...'
p2
a(lp3
(dp4
S'times'
p5
(lp6
(S'simple_port'
p7
F2683.1634998321533
tp8
a(S'jsmin_2_0_9'
p9
F2613.6016130447388
tp10
a(S'rjsmin'
p11
F59.430098533630371
tp12
a(S'_rjsmin'
p13
F1.8981218338012695
tp14
asS'size'
p15
I976057
sS'messages'
p16
(lp17
sS'sizes'
p18
(lp19
I974326
aI974329
aI974326
aI974326
asS'filename'
p20
S'bench/apiviewer.js'
p21
sa(dp22
g5
(lp23
(g7
F111.40251159667969
tp24
a(g9
F48.928713798522949
tp25
a(g11
F15.825414657592773
tp26
a(g13
F0.16941070556640625
tp27
asg15
I50212
sg16
(lp28
sg18
(lp29
I27005
aI27030
aI27006
aI27006
asg20
S'bench/bootstrap.js'
p30
sa(dp31
g5
(lp32
(g7
F579.88851070404053
tp33
a(g9
F302.56550312042236
tp34
a(g11
F108.55839252471924
tp35
a(g13
F1.0750055313110352
tp36
asg15
I248235
sg16
(lp37
sg18
(lp38
I139170
aI140054
aI139170
aI139170
asg20
S'bench/jquery-1.7.1.js'
p39
sa(dp40
g5
(lp41
(g7
F107.03849792480469
tp42
a(g9
F52.660608291625977
tp43
a(g11
F3.2551050186157227
tp44
a(g13
F0.088372945785522461
tp45
asg15
I39817
sg16
(lp46
sg18
(lp47
I39533
aI39537
aI39535
aI39535
asg20
S'bench/knockout-2.0.0.js'
p48
sa(dp49
g5
(lp50
(g7
F55.650997161865234
tp51
a(g9
F25.329208374023438
tp52
a(g11
F6.6162109375
tp53
a(g13
F0.078207015991210938
tp54
asg15
I29300
sg16
(lp55
sg18
(lp56
I11853
aI11871
aI11853
aI11853
asg20
S'bench/markermanager.js'
p57
satp58
.