(S'2.7.18'
p0
(lp1
(lp2
(dp3
S'times'
p4
(lp5
(S'simple_port'
p6
F1172.8248119354248
tp7
a(S'jsmin_2_0_9'
p8
F1133.5136890411377
tp9
a(S'rjsmin'
p10
F27.88848876953125
tp11
a(S'_rjsmin'
p12
F1.4961004257202148
tp13
asS'messages'
p14
(lp15
sS'size'
p16
I976057
sS'filename'
p17
S'bench/apiviewer.js'
p18
sS'sizes'
p19
(lp20
I974326
aI974329
aI974326
aI974326
asa(dp21
g4
(lp22
(g6
F47.4315881729126
tp23
a(g8
F19.828009605407715
tp24
a(g10
F6.850409507751465
tp25
a(g12
F0.11898040771484375
tp26
asg14
(lp27
sg16
I50212
sg17
S'bench/bootstrap.js'
p28
sg19
(lp29
I27005
aI27030
aI27006
aI27006
asa(dp30
g4
(lp31
(g6
F17.75209903717041
tp32
a(g8
F7.470202445983887
tp33
a(g10
F1.900792121887207
tp34
a(g12
F0.03279590606689453
tp35
asg14
(lp36
sg16
I18754
sg17
S'bench/DateTimeShortcuts.js'
p37
sg19
(lp38
I10488
aI10517
aI10489
aI10489
asa(dp39
g4
(lp40
(g6
F247.7841854095459
tp41
a(g8
F127.40910053253174
tp42
a(g10
F47.943711280822754
tp43
a(g12
F0.7530403137207031
tp44
asg14
(lp45
sg16
I248235
sg17
S'bench/jquery-1.7.1.js'
p46
sg19
(lp47
I139170
aI140054
aI139170
aI139170
asa(dp48
g4
(lp49
(g6
F47.16789722442627
tp50
a(g8
F21.98629379272461
tp51
a(g10
F1.5861034393310547
tp52
a(g12
F0.06713700294494629
tp53
asg14
(lp54
sg16
I39817
sg17
S'bench/knockout-2.0.0.js'
p55
sg19
(lp56
I39533
aI39537
aI39535
aI39535
asa(dp57
g4
(lp58
(g6
F23.40250015258789
tp59
a(g8
F10.072708129882812
tp60
a(g10
F3.0009984970092773
tp61
a(g12
F0.05295610427856445
tp62
asg14
(lp63
sg16
I29300
sg17
S'bench/markermanager.js'
p64
sg19
(lp65
I11853
aI11871
aI11853
aI11853
asatp66
.(V3.10.0
p0
(lp1
(lp2
(dp3
Vfilename
p4
Vbench/apiviewer.js
p5
sVsizes
p6
(lp7
I974318
aI974321
aI974318
aI974318
asVsize
p8
I976049
sVmessages
p9
(lp10
sVtimes
p11
(lp12
(Vsimple_port
p13
F955.2807569503784
tp14
a(Vjsmin_2_0_9
p15
F976.3454437255859
tp16
a(Vrjsmin
p17
F27.78646945953369
tp18
a(V_rjsmin
p19
F2.446770668029785
tp20
asa(dp21
g4
Vbench/bootstrap.js
p22
sg6
(lp23
I27005
aI27030
aI27006
aI27006
asg8
I50212
sg9
(lp24
sg11
(lp25
(g13
F40.323686599731445
tp26
a(g15
F15.455818176269531
tp27
a(g17
F6.641435623168945
tp28
a(g19
F0.13658523559570312
tp29
asa(dp30
g4
Vbench/DateTimeShortcuts.js
p31
sg6
(lp32
I10488
aI10517
aI10489
aI10489
asg8
I18754
sg9
(lp33
sg11
(lp34
(g13
F14.912796020507812
tp35
a(g15
F5.899405479431152
tp36
a(g17
F1.8531084060668945
tp37
a(g19
F0.04011058807373047
tp38
asa(dp39
g4
Vbench/jquery-1.7.1.js
p40
sg6
(lp41
I139170
aI140054
aI139170
aI139170
asg8
I248235
sg9
(lp42
sg11
(lp43
(g13
F211.3499879837036
tp44
a(g15
F101.0805606842041
tp45
a(g17
F46.88286781311035
tp46
a(g19
F0.8382678031921387
tp47
asa(dp48
g4
Vbench/knockout-2.0.0.js
p49
sg6
(lp50
I39533
aI39537
aI39535
aI39535
asg8
I39817
sg9
(lp51
sg11
(lp52
(g13
F38.099026679992676
tp53
a(g15
F16.43509864807129
tp54
a(g17
F1.4658927917480469
tp55
a(g19
F0.07163810729980469
tp56
asa(dp57
g4
Vbench/markermanager.js
p58
sg6
(lp59
I11853
aI11871
aI11853
aI11853
asg8
I29300
sg9
(lp60
sg11
(lp61
(g13
F19.638395309448242
tp62
a(g15
F7.834529876708984
tp63
a(g17
F2.8961181640625
tp64
a(g19
F0.05977964401245117
tp65
asatp66
.(V3.6.15
p0
(lp1
(lp2
(dp3
Vfilename
p4
Vbench/apiviewer.js
p5
sVsizes
p6
(lp7
L974318L
aL974321L
aL974318L
aL974318L
asVsize
p8
L976049L
sVmessages
p9
(lp10
sVtimes
p11
(lp12
(Vsimple_port
p13
F1254.3877124786377
tp14
a(Vjsmin_2_0_9
p15
F1115.562629699707
tp16
a(Vrjsmin
p17
F29.356074333190918
tp18
a(V_rjsmin
p19
F2.621626853942871
tp20
asa(dp21
g4
Vbench/bootstrap.js
p22
sg6
(lp23
L27005L
aL27030L
aL27006L
aL27006L
asg8
L50212L
sg9
(lp24
sg11
(lp25
(g13
F50.88000297546387
tp26
a(g15
F19.906115531921387
tp27
a(g17
F7.104372978210449
tp28
a(g19
F0.12287139892578125
tp29
asa(dp30
g4
Vbench/DateTimeShortcuts.js
p31
sg6
(lp32
L10488L
aL10517L
aL10489L
aL10489L
asg8
L18754L
sg9
(lp33
sg11
(lp34
(g13
F18.88427734375
tp35
a(g15
F7.54091739654541
tp36
a(g17
F1.9972562789916992
tp37
a(g19
F0.035413503646850586
tp38
asa(dp39
g4
Vbench/jquery-1.7.1.js
p40
sg6
(lp41
L139170L
aL140054L
aL139170L
aL139170L
asg8
L248235L
sg9
(lp42
sg11
(lp43
(g13
F266.68920516967773
tp44
a(g15
F124.2095947265625
tp45
a(g17
F49.283671379089355
tp46
a(g19
F0.766139030456543
tp47
asa(dp48
g4
Vbench/knockout-2.0.0.js
p49
sg6
(lp50
L39533L
aL39537L
aL39535L
aL39535L
asg8
L39817L
sg9
(lp51
sg11
(lp52
(g13
F49.839115142822266
tp53
a(g15
F21.82767391204834
tp54
a(g17
F1.626133918762207
tp55
a(g19
F0.0703582763671875
tp56
asa(dp57
g4
Vbench/markermanager.js
p58
sg6
(lp59
L11853L
aL11871L
aL11853L
aL11853L
asg8
L29300L
sg9
(lp60
sg11
(lp61
(g13
F25.16324520111084
tp62
a(g15
F10.292816162109375
tp63
a(g17
F3.062891960144043
tp64
a(g19
F0.05243635177612305
tp65
asatp66
.(V3.7.12
p0
(lp1
(lp2
(dp3
Vfilename
p4
Vbench/apiviewer.js
p5
sVsizes
p6
(lp7
I974318
aI974321
aI974318
aI974318
asVsize
p8
I976049
sVmessages
p9
(lp10
sVtimes
p11
(lp12
(Vsimple_port
p13
F1167.6549196243286
tp14
a(Vjsmin_2_0_9
p15
F1096.8708753585815
tp16
a(Vrjsmin
p17
F29.647159576416016
tp18
a(V_rjsmin
p19
F2.3597240447998047
tp20
asa(dp21
g4
Vbench/bootstrap.js
p22
sg6
(lp23
I27005
aI27030
aI27006
aI27006
asg8
I50212
sg9
(lp24
sg11
(lp25
(g13
F48.56669902801514
tp26
a(g15
F19.31295394897461
tp27
a(g17
F6.876969337463379
tp28
a(g19
F0.12401103973388672
tp29
asa(dp30
g4
Vbench/DateTimeShortcuts.js
p31
sg6
(lp32
I10488
aI10517
aI10489
aI10489
asg8
I18754
sg9
(lp33
sg11
(lp34
(g13
F17.98262596130371
tp35
a(g15
F7.296991348266602
tp36
a(g17
F1.9458293914794922
tp37
a(g19
F0.03554177284240723
tp38
asa(dp39
g4
Vbench/jquery-1.7.1.js
p40
sg6
(lp41
I139170
aI140054
aI139170
aI139170
asg8
I248235
sg9
(lp42
sg11
(lp43
(g13
F253.69815826416016
tp44
a(g15
F120.34339904785156
tp45
a(g17
F48.569345474243164
tp46
a(g19
F0.7710027694702148
tp47
asa(dp48
g4
Vbench/knockout-2.0.0.js
p49
sg6
(lp50
I39533
aI39537
aI39535
aI39535
asg8
I39817
sg9
(lp51
sg11
(lp52
(g13
F46.41587734222412
tp53
a(g15
F20.82815170288086
tp54
a(g17
F1.5357255935668945
tp55
a(g19
F0.07149529457092285
tp56
asa(dp57
g4
Vbench/markermanager.js
p58
sg6
(lp59
I11853
aI11871
aI11853
aI11853
asg8
I29300
sg9
(lp60
sg11
(lp61
(g13
F26.607251167297363
tp62
a(g15
F10.000944137573242
tp63
a(g17
F2.992868423461914
tp64
a(g19
F0.052995920181274414
tp65
asatp66
.(V3.8.12
p0
(lp1
(lp2
(dp3
Vfilename
p4
Vbench/apiviewer.js
p5
sVsizes
p6
(lp7
I974318
aI974321
aI974318
aI974318
asVsize
p8
I976049
sVmessages
p9
(lp10
sVtimes
p11
(lp12
(Vsimple_port
p13
F1015.8906698226929
tp14
a(Vjsmin_2_0_9
p15
F1013.433313369751
tp16
a(Vrjsmin
p17
F28.179645538330078
tp18
a(V_rjsmin
p19
F2.39102840423584
tp20
asa(dp21
g4
Vbench/bootstrap.js
p22
sg6
(lp23
I27005
aI27030
aI27006
aI27006
asg8
I50212
sg9
(lp24
sg11
(lp25
(g13
F42.342209815979004
tp26
a(g15
F16.454339027404785
tp27
a(g17
F6.7069292068481445
tp28
a(g19
F0.13577699661254883
tp29
asa(dp30
g4
Vbench/DateTimeShortcuts.js
p31
sg6
(lp32
I10488
aI10517
aI10489
aI10489
asg8
I18754
sg9
(lp33
sg11
(lp34
(g13
F15.618014335632324
tp35
a(g15
F6.203365325927734
tp36
a(g17
F1.8662214279174805
tp37
a(g19
F0.04030776023864746
tp38
asa(dp39
g4
Vbench/jquery-1.7.1.js
p40
sg6
(lp41
I139170
aI140054
aI139170
aI139170
asg8
I248235
sg9
(lp42
sg11
(lp43
(g13
F221.95301055908203
tp44
a(g15
F105.73205947875977
tp45
a(g17
F46.77867889404297
tp46
a(g19
F0.8360409736633301
tp47
asa(dp48
g4
Vbench/knockout-2.0.0.js
p49
sg6
(lp50
I39533
aI39537
aI39535
aI39535
asg8
I39817
sg9
(lp51
sg11
(lp52
(g13
F40.582895278930664
tp53
a(g15
F17.791318893432617
tp54
a(g17
F1.5527963638305664
tp55
a(g19
F0.0722815990447998
tp56
asa(dp57
g4
Vbench/markermanager.js
p58
sg6
(lp59
I11853
aI11871
aI11853
aI11853
asg8
I29300
sg9
(lp60
sg11
(lp61
(g13
F20.621466636657715
tp62
a(g15
F8.430147171020508
tp63
a(g17
F2.9445886611938477
tp64
a(g19
F0.05870413780212402
tp65
asatp66
.(V3.9.7
p0
(lp1
(lp2
(dp3
Vfilename
p4
Vbench/apiviewer.js
p5
sVsizes
p6
(lp7
I974318
aI974321
aI974318
aI974318
asVsize
p8
I976049
sVmessages
p9
(lp10
sVtimes
p11
(lp12
(Vsimple_port
p13
F1030.9911251068115
tp14
a(Vjsmin_2_0_9
p15
F1018.0456399917603
tp16
a(Vrjsmin
p17
F27.64878273010254
tp18
a(V_rjsmin
p19
F2.379012107849121
tp20
asa(dp21
g4
Vbench/bootstrap.js
p22
sg6
(lp23
I27005
aI27030
aI27006
aI27006
asg8
I50212
sg9
(lp24
sg11
(lp25
(g13
F42.821669578552246
tp26
a(g15
F16.531991958618164
tp27
a(g17
F6.605267524719238
tp28
a(g19
F0.13505220413208008
tp29
asa(dp30
g4
Vbench/DateTimeShortcuts.js
p31
sg6
(lp32
I10488
aI10517
aI10489
aI10489
asg8
I18754
sg9
(lp33
sg11
(lp34
(g13
F15.804791450500488
tp35
a(g15
F6.285834312438965
tp36
a(g17
F1.8559694290161133
tp37
a(g19
F0.03996086120605469
tp38
asa(dp39
g4
Vbench/jquery-1.7.1.js
p40
sg6
(lp41
I139170
aI140054
aI139170
aI139170
asg8
I248235
sg9
(lp42
sg11
(lp43
(g13
F223.63049983978271
tp44
a(g15
F108.80746841430664
tp45
a(g17
F46.419477462768555
tp46
a(g19
F0.8310437202453613
tp47
asa(dp48
g4
Vbench/knockout-2.0.0.js
p49
sg6
(lp50
I39533
aI39537
aI39535
aI39535
asg8
I39817
sg9
(lp51
sg11
(lp52
(g13
F41.16668701171875
tp53
a(g15
F18.036532402038574
tp54
a(g17
F1.4695167541503906
tp55
a(g19
F0.07113981246948242
tp56
asa(dp57
g4
Vbench/markermanager.js
p58
sg6
(lp59
I11853
aI11871
aI11853
aI11853
asg8
I29300
sg9
(lp60
sg11
(lp61
(g13
F20.821452140808105
tp62
a(g15
F8.36942195892334
tp63
a(g17
F2.905893325805664
tp64
a(g19
F0.05825448036193848
tp65
asatp66
.