(S'2.7.18'
p0
(lp1
(lp2
(dp3
S'times'
p4
(lp5
(S'simple_port'
p6
F1137.8358125686646
tp7
a(S'jsmin_2_0_9'
p8
F1096.419596672058
tp9
a(S'rjsmin'
p10
F28.19828987121582
tp11
a(S'_rjsmin'
p12
F2.072000503540039
tp13
asS'size'
p14
I976057
sS'messages'
p15
(lp16
sS'filename'
p17
S'bench/apiviewer.js'
p18
sS'sizes'
p19
(lp20
I974326
aI974329
aI974326
aI974326
asa(dp21
g4
(lp22
(g6
F46.22490406036377
tp23
a(g8
F18.8554048538208
tp24
a(g10
F7.133603096008301
tp25
a(g12
F0.12964963912963867
tp26
asg14
I50212
sg15
(lp27
sg17
S'bench/bootstrap.js'
p28
sg19
(lp29
I27005
aI27030
aI27006
aI27006
asa(dp30
g4
(lp31
(g6
F17.17369556427002
tp32
a(g8
F7.127189636230469
tp33
a(g10
F1.8573999404907227
tp34
a(g12
F0.038285017013549805
tp35
asg14
I18754
sg15
(lp36
sg17
S'bench/DateTimeShortcuts.js'
p37
sg19
(lp38
I10488
aI10517
aI10489
aI10489
asa(dp39
g4
(lp40
(g6
F240.54229259490967
tp41
a(g8
F120.45550346374512
tp42
a(g10
F46.712589263916016
tp43
a(g12
F0.7990479469299316
tp44
asg14
I248235
sg15
(lp45
sg17
S'bench/jquery-1.7.1.js'
p46
sg19
(lp47
I139170
aI140054
aI139170
aI139170
asa(dp48
g4
(lp49
(g6
F45.61610221862793
tp50
a(g8
F20.93939781188965
tp51
a(g10
F1.4780044555664062
tp52
a(g12
F0.08752799034118652
tp53
asg14
I39817
sg15
(lp54
sg17
S'bench/knockout-2.0.0.js'
p55
sg19
(lp56
I39533
aI39537
aI39535
aI39535
asa(dp57
g4
(lp58
(g6
F22.789502143859863
tp59
a(g8
F9.506702423095703
tp60
a(g10
F2.8794050216674805
tp61
a(g12
F0.0594179630279541
tp62
asg14
I29300
sg15
(lp63
sg17
S'bench/markermanager.js'
p64
sg19
(lp65
I11853
aI11871
aI11853
aI11853
asatp66
.(V3.10.5
p0
(lp1
(lp2
(dp3
Vfilename
p4
Vbench/apiviewer.js
p5
sVsizes
p6
(lp7
I974318
aI974321
aI974318
aI974318
asVsize
p8
I976049
sVmessages
p9
(lp10
sVtimes
p11
(lp12
(Vsimple_port
p13
F903.1502485275269
tp14
a(Vjsmin_2_0_9
p15
F915.9900903701782
tp16
a(Vrjsmin
p17
F28.04868221282959
tp18
a(V_rjsmin
p19
F3.3291101455688477
tp20
asa(dp21
g4
Vbench/bootstrap.js
p22
sg6
(lp23
I27005
aI27030
aI27006
aI27006
asg8
I50212
sg9
(lp24
sg11
(lp25
(g13
F38.03610801696777
tp26
a(g15
F14.372539520263672
tp27
a(g17
F7.090401649475098
tp28
a(g19
F0.1380777359008789
tp29
asa(dp30
g4
Vbench/DateTimeShortcuts.js
p31
sg6
(lp32
I10488
aI10517
aI10489
aI10489
asg8
I18754
sg9
(lp33
sg11
(lp34
(g13
F14.041590690612793
tp35
a(g15
F5.517005920410156
tp36
a(g17
F1.8628120422363281
tp37
a(g19
F0.041901350021362305
tp38
asa(dp39
g4
Vbench/jquery-1.7.1.js
p40
sg6
(lp41
I139170
aI140054
aI139170
aI139170
asg8
I248235
sg9
(lp42
sg11
(lp43
(g13
F198.9124298095703
tp44
a(g15
F94.06211376190186
tp45
a(g17
F47.124266624450684
tp46
a(g19
F0.880589485168457
tp47
asa(dp48
g4
Vbench/knockout-2.0.0.js
p49
sg6
(lp50
I39533
aI39537
aI39535
aI39535
asg8
I39817
sg9
(lp51
sg11
(lp52
(g13
F35.981202125549316
tp53
a(g15
F15.450763702392578
tp54
a(g17
F1.4612674713134766
tp55
a(g19
F0.10512113571166992
tp56
asa(dp57
g4
Vbench/markermanager.js
p58
sg6
(lp59
I11853
aI11871
aI11853
aI11853
asg8
I29300
sg9
(lp60
sg11
(lp61
(g13
F18.56536865234375
tp62
a(g15
F7.306647300720215
tp63
a(g17
F2.96475887298584
tp64
a(g19
F0.06480646133422852
tp65
asatp66
.(V3.11.0
p0
(lp1
(lp2
(dp3
Vfilename
p4
Vbench/apiviewer.js
p5
sVsizes
p6
(lp7
I974318
aI974321
aI974318
aI974318
asVsize
p8
I976049
sVmessages
p9
(lp10
sVtimes
p11
(lp12
(Vsimple_port
p13
F431.30736351013184
tp14
a(Vjsmin_2_0_9
p15
F788.463282585144
tp16
a(Vrjsmin
p17
F26.897644996643066
tp18
a(V_rjsmin
p19
F3.2520294189453125
tp20
asa(dp21
g4
Vbench/bootstrap.js
p22
sg6
(lp23
I27005
aI27030
aI27006
aI27006
asg8
I50212
sg9
(lp24
sg11
(lp25
(g13
F16.72947406768799
tp26
a(g15
F10.258746147155762
tp27
a(g17
F5.96928596496582
tp28
a(g19
F0.13755321502685547
tp29
asa(dp30
g4
Vbench/DateTimeShortcuts.js
p31
sg6
(lp32
I10488
aI10517
aI10489
aI10489
asg8
I18754
sg9
(lp33
sg11
(lp34
(g13
F6.272006034851074
tp35
a(g15
F3.8767576217651367
tp36
a(g17
F1.5546321868896484
tp37
a(g19
F0.041930198669433594
tp38
asa(dp39
g4
Vbench/jquery-1.7.1.js
p40
sg6
(lp41
I139170
aI140054
aI139170
aI139170
asg8
I248235
sg9
(lp42
sg11
(lp43
(g13
F88.52579593658447
tp44
a(g15
F70.67887783050537
tp45
a(g17
F38.22958469390869
tp46
a(g19
F0.8752727508544922
tp47
asa(dp48
g4
Vbench/knockout-2.0.0.js
p49
sg6
(lp50
I39533
aI39537
aI39535
aI39535
asg8
I39817
sg9
(lp51
sg11
(lp52
(g13
F14.56615924835205
tp53
a(g15
F10.651040077209473
tp54
a(g17
F1.2918949127197266
tp55
a(g19
F0.10434865951538086
tp56
asa(dp57
g4
Vbench/markermanager.js
p58
sg6
(lp59
I11853
aI11871
aI11853
aI11853
asg8
I29300
sg9
(lp60
sg11
(lp61
(g13
F8.224153518676758
tp62
a(g15
F5.154657363891602
tp63
a(g17
F2.391529083251953
tp64
a(g19
F0.06397652626037598
tp65
asatp66
.(V3.6.15
p0
(lp1
(lp2
(dp3
Vfilename
p4
Vbench/apiviewer.js
p5
sVsizes
p6
(lp7
L974318L
aL974321L
aL974318L
aL974318L
asVsize
p8
L976049L
sVmessages
p9
(lp10
sVtimes
p11
(lp12
(Vsimple_port
p13
F1201.8255472183228
tp14
a(Vjsmin_2_0_9
p15
F1034.169840812683
tp16
a(Vrjsmin
p17
F30.447101593017578
tp18
a(V_rjsmin
p19
F3.0075550079345703
tp20
asa(dp21
g4
Vbench/bootstrap.js
p22
sg6
(lp23
L27005L
aL27030L
aL27006L
aL27006L
asg8
L50212L
sg9
(lp24
sg11
(lp25
(g13
F48.53770732879639
tp26
a(g15
F17.806696891784668
tp27
a(g17
F7.42342472076416
tp28
a(g19
F0.12762784957885742
tp29
asa(dp30
g4
Vbench/DateTimeShortcuts.js
p31
sg6
(lp32
L10488L
aL10517L
aL10489L
aL10489L
asg8
L18754L
sg9
(lp33
sg11
(lp34
(g13
F18.04182529449463
tp35
a(g15
F6.787371635437012
tp36
a(g17
F1.9884824752807617
tp37
a(g19
F0.03759050369262695
tp38
asa(dp39
g4
Vbench/jquery-1.7.1.js
p40
sg6
(lp41
L139170L
aL140054L
aL139170L
aL139170L
asg8
L248235L
sg9
(lp42
sg11
(lp43
(g13
F255.8363437652588
tp44
a(g15
F110.87493896484375
tp45
a(g17
F49.10848140716553
tp46
a(g19
F0.8260226249694824
tp47
asa(dp48
g4
Vbench/knockout-2.0.0.js
p49
sg6
(lp50
L39533L
aL39537L
aL39535L
aL39535L
asg8
L39817L
sg9
(lp51
sg11
(lp52
(g13
F47.859907150268555
tp53
a(g15
F19.569873809814453
tp54
a(g17
F1.5330791473388672
tp55
a(g19
F0.0846402645111084
tp56
asa(dp57
g4
Vbench/markermanager.js
p58
sg6
(lp59
L11853L
aL11871L
aL11853L
aL11853L
asg8
L29300L
sg9
(lp60
sg11
(lp61
(g13
F24.317240715026855
tp62
a(g15
F9.125828742980957
tp63
a(g17
F3.04868221282959
tp64
a(g19
F0.0577845573425293
tp65
asatp66
.(V3.7.13
p0
(lp1
(lp2
(dp3
Vfilename
p4
Vbench/apiviewer.js
p5
sVsizes
p6
(lp7
I974318
aI974321
aI974318
aI974318
asVsize
p8
I976049
sVmessages
p9
(lp10
sVtimes
p11
(lp12
(Vsimple_port
p13
F1066.0993814468384
tp14
a(Vjsmin_2_0_9
p15
F1020.57945728302
tp16
a(Vrjsmin
p17
F30.90355396270752
tp18
a(V_rjsmin
p19
F2.9515504837036133
tp20
asa(dp21
g4
Vbench/bootstrap.js
p22
sg6
(lp23
I27005
aI27030
aI27006
aI27006
asg8
I50212
sg9
(lp24
sg11
(lp25
(g13
F44.24242973327637
tp26
a(g15
F17.86067485809326
tp27
a(g17
F7.237482070922852
tp28
a(g19
F0.13340473175048828
tp29
asa(dp30
g4
Vbench/DateTimeShortcuts.js
p31
sg6
(lp32
I10488
aI10517
aI10489
aI10489
asg8
I18754
sg9
(lp33
sg11
(lp34
(g13
F17.07921028137207
tp35
a(g15
F7.324504852294922
tp36
a(g17
F2.495408058166504
tp37
a(g19
F0.03946328163146973
tp38
asa(dp39
g4
Vbench/jquery-1.7.1.js
p40
sg6
(lp41
I139170
aI140054
aI139170
aI139170
asg8
I248235
sg9
(lp42
sg11
(lp43
(g13
F230.0800085067749
tp44
a(g15
F111.29729747772217
tp45
a(g17
F48.719048500061035
tp46
a(g19
F0.8546972274780273
tp47
asa(dp48
g4
Vbench/knockout-2.0.0.js
p49
sg6
(lp50
I39533
aI39537
aI39535
aI39535
asg8
I39817
sg9
(lp51
sg11
(lp52
(g13
F42.57345199584961
tp53
a(g15
F19.170665740966797
tp54
a(g17
F1.531362533569336
tp55
a(g19
F0.08386063575744629
tp56
asa(dp57
g4
Vbench/markermanager.js
p58
sg6
(lp59
I11853
aI11871
aI11853
aI11853
asg8
I29300
sg9
(lp60
sg11
(lp61
(g13
F21.9315767288208
tp62
a(g15
F9.144926071166992
tp63
a(g17
F3.0286073684692383
tp64
a(g19
F0.061661720275878906
tp65
asatp66
.(V3.8.13
p0
(lp1
(lp2
(dp3
Vfilename
p4
Vbench/apiviewer.js
p5
sVsizes
p6
(lp7
I974318
aI974321
aI974318
aI974318
asVsize
p8
I976049
sVmessages
p9
(lp10
sVtimes
p11
(lp12
(Vsimple_port
p13
F983.0623626708984
tp14
a(Vjsmin_2_0_9
p15
F978.1469106674194
tp16
a(Vrjsmin
p17
F30.140233039855957
tp18
a(V_rjsmin
p19
F3.298521041870117
tp20
asa(dp21
g4
Vbench/bootstrap.js
p22
sg6
(lp23
I27005
aI27030
aI27006
aI27006
asg8
I50212
sg9
(lp24
sg11
(lp25
(g13
F40.64359664916992
tp26
a(g15
F15.986013412475586
tp27
a(g17
F7.022500038146973
tp28
a(g19
F0.13858318328857422
tp29
asa(dp30
g4
Vbench/DateTimeShortcuts.js
p31
sg6
(lp32
I10488
aI10517
aI10489
aI10489
asg8
I18754
sg9
(lp33
sg11
(lp34
(g13
F15.037369728088379
tp35
a(g15
F6.086540222167969
tp36
a(g17
F1.852107048034668
tp37
a(g19
F0.04224753379821777
tp38
asa(dp39
g4
Vbench/jquery-1.7.1.js
p40
sg6
(lp41
I139170
aI140054
aI139170
aI139170
asg8
I248235
sg9
(lp42
sg11
(lp43
(g13
F212.33692169189453
tp44
a(g15
F102.22704410552979
tp45
a(g17
F46.90804481506348
tp46
a(g19
F0.8794307708740234
tp47
asa(dp48
g4
Vbench/knockout-2.0.0.js
p49
sg6
(lp50
I39533
aI39537
aI39535
aI39535
asg8
I39817
sg9
(lp51
sg11
(lp52
(g13
F39.1948938369751
tp53
a(g15
F17.413020133972168
tp54
a(g17
F1.441335678100586
tp55
a(g19
F0.10539770126342773
tp56
asa(dp57
g4
Vbench/markermanager.js
p58
sg6
(lp59
I11853
aI11871
aI11853
aI11853
asg8
I29300
sg9
(lp60
sg11
(lp61
(g13
F19.75710391998291
tp62
a(g15
F8.126187324523926
tp63
a(g17
F2.8731346130371094
tp64
a(g19
F0.06450676918029785
tp65
asatp66
.(V3.9.13
p0
(lp1
(lp2
(dp3
Vfilename
p4
Vbench/apiviewer.js
p5
sVsizes
p6
(lp7
I974318
aI974321
aI974318
aI974318
asVsize
p8
I976049
sVmessages
p9
(lp10
sVtimes
p11
(lp12
(Vsimple_port
p13
F969.7191953659058
tp14
a(Vjsmin_2_0_9
p15
F947.1307992935181
tp16
a(Vrjsmin
p17
F28.647208213806152
tp18
a(V_rjsmin
p19
F3.358030319213867
tp20
asa(dp21
g4
Vbench/bootstrap.js
p22
sg6
(lp23
I27005
aI27030
aI27006
aI27006
asg8
I50212
sg9
(lp24
sg11
(lp25
(g13
F39.933156967163086
tp26
a(g15
F15.079164505004883
tp27
a(g17
F6.838274002075195
tp28
a(g19
F0.13941287994384766
tp29
asa(dp30
g4
Vbench/DateTimeShortcuts.js
p31
sg6
(lp32
I10488
aI10517
aI10489
aI10489
asg8
I18754
sg9
(lp33
sg11
(lp34
(g13
F14.719343185424805
tp35
a(g15
F5.763769149780273
tp36
a(g17
F1.802682876586914
tp37
a(g19
F0.04223465919494629
tp38
asa(dp39
g4
Vbench/jquery-1.7.1.js
p40
sg6
(lp41
I139170
aI140054
aI139170
aI139170
asg8
I248235
sg9
(lp42
sg11
(lp43
(g13
F209.26718711853027
tp44
a(g15
F99.19729232788086
tp45
a(g17
F45.68822383880615
tp46
a(g19
F0.8836460113525391
tp47
asa(dp48
g4
Vbench/knockout-2.0.0.js
p49
sg6
(lp50
I39533
aI39537
aI39535
aI39535
asg8
I39817
sg9
(lp51
sg11
(lp52
(g13
F38.68823051452637
tp53
a(g15
F16.399478912353516
tp54
a(g17
F1.412510871887207
tp55
a(g19
F0.106658935546875
tp56
asa(dp57
g4
Vbench/markermanager.js
p58
sg6
(lp59
I11853
aI11871
aI11853
aI11853
asg8
I29300
sg9
(lp60
sg11
(lp61
(g13
F19.397497177124023
tp62
a(g15
F7.593798637390137
tp63
a(g17
F2.802300453186035
tp64
a(g19
F0.06507706642150879
tp65
asatp66
.