(S'2.7.18'
p0
(lp1
(lp2
(dp3
S'times'
p4
(lp5
(S'simple_port'
p6
F1194.3227052688599
tp7
a(S'jsmin_2_0_9'
p8
F1140.918517112732
tp9
a(S'rjsmin'
p10
F29.781484603881836
tp11
a(S'_rjsmin'
p12
F2.175116539001465
tp13
asS'filename'
p14
S'bench/apiviewer.js'
p15
sS'sizes'
p16
(lp17
I974326
aI974329
aI974326
aI974326
asS'size'
p18
I976057
sS'messages'
p19
(lp20
sa(dp21
g4
(lp22
(g6
F48.126888275146484
tp23
a(g8
F19.762206077575684
tp24
a(g10
F7.417392730712891
tp25
a(g12
F0.13469934463500977
tp26
asg14
S'bench/bootstrap.js'
p27
sg16
(lp28
I27005
aI27030
aI27006
aI27006
asg18
I50212
sg19
(lp29
sa(dp30
g4
(lp31
(g6
F17.89219379425049
tp32
a(g8
F7.449197769165039
tp33
a(g10
F1.9627094268798828
tp34
a(g12
F0.039938926696777344
tp35
asg14
S'bench/DateTimeShortcuts.js'
p36
sg16
(lp37
I10488
aI10517
aI10489
aI10489
asg18
I18754
sg19
(lp38
sa(dp39
g4
(lp40
(g6
F249.74689483642578
tp41
a(g8
F125.85310935974121
tp42
a(g10
F49.45559501647949
tp43
a(g12
F0.8353400230407715
tp44
asg14
S'bench/jquery-1.7.1.js'
p45
sg16
(lp46
I139170
aI140054
aI139170
aI139170
asg18
I248235
sg19
(lp47
sa(dp48
g4
(lp49
(g6
F47.92919158935547
tp50
a(g8
F21.82791233062744
tp51
a(g10
F1.5553951263427734
tp52
a(g12
F0.0913691520690918
tp53
asg14
S'bench/knockout-2.0.0.js'
p54
sg16
(lp55
I39533
aI39537
aI39535
aI39535
asg18
I39817
sg19
(lp56
sa(dp57
g4
(lp58
(g6
F23.7307071685791
tp59
a(g8
F9.976887702941895
tp60
a(g10
F3.0953168869018555
tp61
a(g12
F0.06221723556518555
tp62
asg14
S'bench/markermanager.js'
p63
sg16
(lp64
I11853
aI11871
aI11853
aI11853
asg18
I29300
sg19
(lp65
satp66
.(V3.10.0
p0
(lp1
(lp2
(dp3
Vfilename
p4
Vbench/apiviewer.js
p5
sVsizes
p6
(lp7
I974318
aI974321
aI974318
aI974318
asVsize
p8
I976049
sVmessages
p9
(lp10
sVtimes
p11
(lp12
(Vsimple_port
p13
F957.3596477508545
tp14
a(Vjsmin_2_0_9
p15
F976.9205570220947
tp16
a(Vrjsmin
p17
F30.193543434143066
tp18
a(V_rjsmin
p19
F3.330707550048828
tp20
asa(dp21
g4
Vbench/bootstrap.js
p22
sg6
(lp23
I27005
aI27030
aI27006
aI27006
asg8
I50212
sg9
(lp24
sg11
(lp25
(g13
F40.6275749206543
tp26
a(g15
F15.334224700927734
tp27
a(g17
F7.239055633544922
tp28
a(g19
F0.15094518661499023
tp29
asa(dp30
g4
Vbench/DateTimeShortcuts.js
p31
sg6
(lp32
I10488
aI10517
aI10489
aI10489
asg8
I18754
sg9
(lp33
sg11
(lp34
(g13
F15.040087699890137
tp35
a(g15
F5.9474945068359375
tp36
a(g17
F1.9500970840454102
tp37
a(g19
F0.04432940483093262
tp38
asa(dp39
g4
Vbench/jquery-1.7.1.js
p40
sg6
(lp41
I139170
aI140054
aI139170
aI139170
asg8
I248235
sg9
(lp42
sg11
(lp43
(g13
F212.5077486038208
tp44
a(g15
F102.7076005935669
tp45
a(g17
F48.61457347869873
tp46
a(g19
F0.906221866607666
tp47
asa(dp48
g4
Vbench/knockout-2.0.0.js
p49
sg6
(lp50
I39533
aI39537
aI39535
aI39535
asg8
I39817
sg9
(lp51
sg11
(lp52
(g13
F38.37604522705078
tp53
a(g15
F17.189741134643555
tp54
a(g17
F1.650834083557129
tp55
a(g19
F0.10386228561401367
tp56
asa(dp57
g4
Vbench/markermanager.js
p58
sg6
(lp59
I11853
aI11871
aI11853
aI11853
asg8
I29300
sg9
(lp60
sg11
(lp61
(g13
F19.800758361816406
tp62
a(g15
F7.8177690505981445
tp63
a(g17
F2.9796600341796875
tp64
a(g19
F0.07166647911071777
tp65
asatp66
.(V3.6.15
p0
(lp1
(lp2
(dp3
Vfilename
p4
Vbench/apiviewer.js
p5
sVsizes
p6
(lp7
L974318L
aL974321L
aL974318L
aL974318L
asVsize
p8
L976049L
sVmessages
p9
(lp10
sVtimes
p11
(lp12
(Vsimple_port
p13
F1236.2781047821045
tp14
a(Vjsmin_2_0_9
p15
F1104.0457963943481
tp16
a(Vrjsmin
p17
F31.258344650268555
tp18
a(V_rjsmin
p19
F3.1419992446899414
tp20
asa(dp21
g4
Vbench/bootstrap.js
p22
sg6
(lp23
L27005L
aL27030L
aL27006L
aL27006L
asg8
L50212L
sg9
(lp24
sg11
(lp25
(g13
F50.64351558685303
tp26
a(g15
F19.487643241882324
tp27
a(g17
F7.641410827636719
tp28
a(g19
F0.13266563415527344
tp29
asa(dp30
g4
Vbench/DateTimeShortcuts.js
p31
sg6
(lp32
L10488L
aL10517L
aL10489L
aL10489L
asg8
L18754L
sg9
(lp33
sg11
(lp34
(g13
F18.798279762268066
tp35
a(g15
F7.363462448120117
tp36
a(g17
F2.032780647277832
tp37
a(g19
F0.03907012939453125
tp38
asa(dp39
g4
Vbench/jquery-1.7.1.js
p40
sg6
(lp41
L139170L
aL140054L
aL139170L
aL139170L
asg8
L248235L
sg9
(lp42
sg11
(lp43
(g13
F265.5266761779785
tp44
a(g15
F123.13868999481201
tp45
a(g17
F50.602030754089355
tp46
a(g19
F0.8634638786315918
tp47
asa(dp48
g4
Vbench/knockout-2.0.0.js
p49
sg6
(lp50
L39533L
aL39537L
aL39535L
aL39535L
asg8
L39817L
sg9
(lp51
sg11
(lp52
(g13
F49.445199966430664
tp53
a(g15
F21.184062957763672
tp54
a(g17
F1.595163345336914
tp55
a(g19
F0.08852052688598633
tp56
asa(dp57
g4
Vbench/markermanager.js
p58
sg6
(lp59
L11853L
aL11871L
aL11853L
aL11853L
asg8
L29300L
sg9
(lp60
sg11
(lp61
(g13
F24.97844696044922
tp62
a(g15
F9.903478622436523
tp63
a(g17
F3.177666664123535
tp64
a(g19
F0.06046795845031738
tp65
asatp66
.(V3.7.12
p0
(lp1
(lp2
(dp3
Vfilename
p4
Vbench/apiviewer.js
p5
sVsizes
p6
(lp7
I974318
aI974321
aI974318
aI974318
asVsize
p8
I976049
sVmessages
p9
(lp10
sVtimes
p11
(lp12
(Vsimple_port
p13
F1139.4603729248047
tp14
a(Vjsmin_2_0_9
p15
F1075.2480745315552
tp16
a(Vrjsmin
p17
F32.16414451599121
tp18
a(V_rjsmin
p19
F2.8518199920654297
tp20
asa(dp21
g4
Vbench/bootstrap.js
p22
sg6
(lp23
I27005
aI27030
aI27006
aI27006
asg8
I50212
sg9
(lp24
sg11
(lp25
(g13
F47.454166412353516
tp26
a(g15
F18.886113166809082
tp27
a(g17
F7.892179489135742
tp28
a(g19
F0.1334524154663086
tp29
asa(dp30
g4
Vbench/DateTimeShortcuts.js
p31
sg6
(lp32
I10488
aI10517
aI10489
aI10489
asg8
I18754
sg9
(lp33
sg11
(lp34
(g13
F17.618989944458008
tp35
a(g15
F7.163596153259277
tp36
a(g17
F1.9945383071899414
tp37
a(g19
F0.03964996337890625
tp38
asa(dp39
g4
Vbench/jquery-1.7.1.js
p40
sg6
(lp41
I139170
aI140054
aI139170
aI139170
asg8
I248235
sg9
(lp42
sg11
(lp43
(g13
F247.20797538757324
tp44
a(g15
F117.85993576049805
tp45
a(g17
F51.82318687438965
tp46
a(g19
F0.8683991432189941
tp47
asa(dp48
g4
Vbench/knockout-2.0.0.js
p49
sg6
(lp50
I39533
aI39537
aI39535
aI39535
asg8
I39817
sg9
(lp51
sg11
(lp52
(g13
F45.641326904296875
tp53
a(g15
F20.293617248535156
tp54
a(g17
F1.5739917755126953
tp55
a(g19
F0.08989143371582031
tp56
asa(dp57
g4
Vbench/markermanager.js
p58
sg6
(lp59
I11853
aI11871
aI11853
aI11853
asg8
I29300
sg9
(lp60
sg11
(lp61
(g13
F23.371315002441406
tp62
a(g15
F9.736227989196777
tp63
a(g17
F3.1375646591186523
tp64
a(g19
F0.0607914924621582
tp65
asatp66
.(V3.8.12
p0
(lp1
(lp2
(dp3
Vfilename
p4
Vbench/apiviewer.js
p5
sVsizes
p6
(lp7
I974318
aI974321
aI974318
aI974318
asVsize
p8
I976049
sVmessages
p9
(lp10
sVtimes
p11
(lp12
(Vsimple_port
p13
F1028.0009269714355
tp14
a(Vjsmin_2_0_9
p15
F1015.6253814697266
tp16
a(Vrjsmin
p17
F30.57119846343994
tp18
a(V_rjsmin
p19
F3.264498710632324
tp20
asa(dp21
g4
Vbench/bootstrap.js
p22
sg6
(lp23
I27005
aI27030
aI27006
aI27006
asg8
I50212
sg9
(lp24
sg11
(lp25
(g13
F42.79911518096924
tp26
a(g15
F16.5191650390625
tp27
a(g17
F7.341456413269043
tp28
a(g19
F0.15306949615478516
tp29
asa(dp30
g4
Vbench/DateTimeShortcuts.js
p31
sg6
(lp32
I10488
aI10517
aI10489
aI10489
asg8
I18754
sg9
(lp33
sg11
(lp34
(g13
F15.774178504943848
tp35
a(g15
F6.24699592590332
tp36
a(g17
F1.9613265991210938
tp37
a(g19
F0.04676556587219238
tp38
asa(dp39
g4
Vbench/jquery-1.7.1.js
p40
sg6
(lp41
I139170
aI140054
aI139170
aI139170
asg8
I248235
sg9
(lp42
sg11
(lp43
(g13
F224.36151504516602
tp44
a(g15
F104.37948703765869
tp45
a(g17
F48.99251461029053
tp46
a(g19
F0.9395527839660645
tp47
asa(dp48
g4
Vbench/knockout-2.0.0.js
p49
sg6
(lp50
I39533
aI39537
aI39535
aI39535
asg8
I39817
sg9
(lp51
sg11
(lp52
(g13
F41.05348587036133
tp53
a(g15
F17.94586181640625
tp54
a(g17
F1.5033960342407227
tp55
a(g19
F0.10303020477294922
tp56
asa(dp57
g4
Vbench/markermanager.js
p58
sg6
(lp59
I11853
aI11871
aI11853
aI11853
asg8
I29300
sg9
(lp60
sg11
(lp61
(g13
F20.82958221435547
tp62
a(g15
F8.423423767089844
tp63
a(g17
F3.0375003814697266
tp64
a(g19
F0.06910371780395508
tp65
asatp66
.(V3.9.8
p0
(lp1
(lp2
(dp3
Vfilename
p4
Vbench/apiviewer.js
p5
sVsizes
p6
(lp7
I974318
aI974321
aI974318
aI974318
asVsize
p8
I976049
sVmessages
p9
(lp10
sVtimes
p11
(lp12
(Vsimple_port
p13
F1012.7188682556152
tp14
a(Vjsmin_2_0_9
p15
F1005.0266265869141
tp16
a(Vrjsmin
p17
F30.922722816467285
tp18
a(V_rjsmin
p19
F3.2215356826782227
tp20
asa(dp21
g4
Vbench/bootstrap.js
p22
sg6
(lp23
I27005
aI27030
aI27006
aI27006
asg8
I50212
sg9
(lp24
sg11
(lp25
(g13
F42.14761257171631
tp26
a(g15
F16.214370727539062
tp27
a(g17
F7.04493522644043
tp28
a(g19
F0.15160083770751953
tp29
asa(dp30
g4
Vbench/DateTimeShortcuts.js
p31
sg6
(lp32
I10488
aI10517
aI10489
aI10489
asg8
I18754
sg9
(lp33
sg11
(lp34
(g13
F15.62342643737793
tp35
a(g15
F6.225299835205078
tp36
a(g17
F1.8886327743530273
tp37
a(g19
F0.04625964164733887
tp38
asa(dp39
g4
Vbench/jquery-1.7.1.js
p40
sg6
(lp41
I139170
aI140054
aI139170
aI139170
asg8
I248235
sg9
(lp42
sg11
(lp43
(g13
F219.98376846313477
tp44
a(g15
F106.9624662399292
tp45
a(g17
F47.18148708343506
tp46
a(g19
F0.9375429153442383
tp47
asa(dp48
g4
Vbench/knockout-2.0.0.js
p49
sg6
(lp50
I39533
aI39537
aI39535
aI39535
asg8
I39817
sg9
(lp51
sg11
(lp52
(g13
F40.552544593811035
tp53
a(g15
F17.620277404785156
tp54
a(g17
F1.47705078125
tp55
a(g19
F0.10128259658813477
tp56
asa(dp57
g4
Vbench/markermanager.js
p58
sg6
(lp59
I11853
aI11871
aI11853
aI11853
asg8
I29300
sg9
(lp60
sg11
(lp61
(g13
F20.59781551361084
tp62
a(g15
F8.264970779418945
tp63
a(g17
F2.929568290710449
tp64
a(g19
F0.06904768943786621
tp65
asatp66
.