(S'2.7.16'
p0
(lp1
(lp2
(dp3
S'size'
p4
I976057
sS'filename'
p5
S'bench/apiviewer.js'
p6
sS'messages'
p7
(lp8
sS'times'
p9
(lp10
(S'simple_port'
p11
F1133.1336975097656
tp12
a(S'jsmin_2_0_9'
p13
F1130.4271221160889
tp14
a(S'rjsmin'
p15
F26.22358798980713
tp16
a(S'_rjsmin'
p17
F1.3154029846191406
tp18
asS'sizes'
p19
(lp20
I974326
aI974329
aI974326
aI974326
asa(dp21
g4
I50212
sg5
S'bench/bootstrap.js'
p22
sg7
(lp23
sg9
(lp24
(g11
F45.85549831390381
tp25
a(g13
F20.09758949279785
tp26
a(g15
F6.636309623718262
tp27
a(g17
F0.11330127716064453
tp28
asg19
(lp29
I27005
aI27030
aI27006
aI27006
asa(dp30
g4
I18754
sg5
S'bench/DateTimeShortcuts.js'
p31
sg7
(lp32
sg9
(lp33
(g11
F17.02249050140381
tp34
a(g13
F7.352113723754883
tp35
a(g15
F1.8371105194091797
tp36
a(g17
F0.03105306625366211
tp37
asg19
(lp38
I10488
aI10517
aI10489
aI10489
asa(dp39
g4
I248235
sg5
S'bench/jquery-1.7.1.js'
p40
sg7
(lp41
sg9
(lp42
(g11
F239.07768726348877
tp43
a(g13
F125.00951290130615
tp44
a(g15
F46.30100727081299
tp45
a(g17
F0.717768669128418
tp46
asg19
(lp47
I139170
aI140054
aI139170
aI139170
asa(dp48
g4
I39817
sg5
S'bench/knockout-2.0.0.js'
p49
sg7
(lp50
sg9
(lp51
(g11
F45.705389976501465
tp52
a(g13
F21.64630889892578
tp53
a(g15
F1.4541149139404297
tp54
a(g17
F0.060771942138671875
tp55
asg19
(lp56
I39533
aI39537
aI39535
aI39535
asa(dp57
g4
I29300
sg5
S'bench/markermanager.js'
p58
sg7
(lp59
sg9
(lp60
(g11
F22.625017166137695
tp61
a(g13
F9.95490550994873
tp62
a(g15
F2.8769969940185547
tp63
a(g17
F0.05276894569396973
tp64
asg19
(lp65
I11853
aI11871
aI11853
aI11853
asatp66
.(V3.4.8
p0
(lp1
(lp2
(dp3
Vtimes
p4
(lp5
(Vsimple_port
p6
F1081.2675476074219
tp7
a(Vjsmin_2_0_9
p8
F1052.2998332977295
tp9
a(Vrjsmin
p10
F27.159547805786133
tp11
a(V_rjsmin
p12
F1.3930082321166992
tp13
asVsizes
p14
(lp15
L974318L
aL974321L
aL974318L
aL974318L
asVmessages
p16
(lp17
sVfilename
p18
Vbench/apiviewer.js
p19
sVsize
p20
L976049L
sa(dp21
g4
(lp22
(g6
F44.831085205078125
tp23
a(g8
F17.994093894958496
tp24
a(g10
F6.6713571548461914
tp25
a(g12
F0.10948657989501953
tp26
asg14
(lp27
L27005L
aL27030L
aL27006L
aL27006L
asg16
(lp28
sg18
Vbench/bootstrap.js
p29
sg20
L50212L
sa(dp30
g4
(lp31
(g6
F17.610549926757812
tp32
a(g8
F7.4927330017089844
tp33
a(g10
F1.8561124801635742
tp34
a(g12
F0.031417131423950195
tp35
asg14
(lp36
L10488L
aL10517L
aL10489L
aL10489L
asg16
(lp37
sg18
Vbench/DateTimeShortcuts.js
p38
sg20
L18754L
sa(dp39
g4
(lp40
(g6
F236.37194633483887
tp41
a(g8
F113.43581676483154
tp42
a(g10
F46.540975570678711
tp43
a(g12
F0.69234371185302734
tp44
asg14
(lp45
L139170L
aL140054L
aL139170L
aL139170L
asg16
(lp46
sg18
Vbench/jquery-1.7.1.js
p47
sg20
L248235L
sa(dp48
g4
(lp49
(g6
F43.269848823547363
tp50
a(g8
F19.635272026062012
tp51
a(g10
F1.420140266418457
tp52
a(g12
F0.062264204025268555
tp53
asg14
(lp54
L39533L
aL39537L
aL39535L
aL39535L
asg16
(lp55
sg18
Vbench/knockout-2.0.0.js
p56
sg20
L39817L
sa(dp57
g4
(lp58
(g6
F22.107839584350586
tp59
a(g8
F9.1344833374023438
tp60
a(g10
F2.8924942016601562
tp61
a(g12
F0.049750328063964844
tp62
asg14
(lp63
L11853L
aL11871L
aL11853L
aL11853L
asg16
(lp64
sg18
Vbench/markermanager.js
p65
sg20
L29300L
satp66
.(V3.5.6
p0
(lp1
(lp2
(dp3
Vtimes
p4
(lp5
(Vsimple_port
p6
F1143.900179862976
tp7
a(Vjsmin_2_0_9
p8
F1082.1557521820068
tp9
a(Vrjsmin
p10
F28.282546997070312
tp11
a(V_rjsmin
p12
F1.4060497283935547
tp13
asVsizes
p14
(lp15
L974318L
aL974321L
aL974318L
aL974318L
asVmessages
p16
(lp17
sVfilename
p18
Vbench/apiviewer.js
p19
sVsize
p20
L976049L
sa(dp21
g4
(lp22
(g6
F47.42743968963623
tp23
a(g8
F18.250036239624023
tp24
a(g10
F6.9434404373168945
tp25
a(g12
F0.11002063751220703
tp26
asg14
(lp27
L27005L
aL27030L
aL27006L
aL27006L
asg16
(lp28
sg18
Vbench/bootstrap.js
p29
sg20
L50212L
sa(dp30
g4
(lp31
(g6
F17.618703842163086
tp32
a(g8
F6.891512870788574
tp33
a(g10
F1.914048194885254
tp34
a(g12
F0.0310513973236084
tp35
asg14
(lp36
L10488L
aL10517L
aL10489L
aL10489L
asg16
(lp37
sg18
Vbench/DateTimeShortcuts.js
p38
sg20
L18754L
sa(dp39
g4
(lp40
(g6
F248.7651824951172
tp41
a(g8
F116.21782779693604
tp42
a(g10
F48.062777519226074
tp43
a(g12
F0.6914305686950684
tp44
asg14
(lp45
L139170L
aL140054L
aL139170L
aL139170L
asg16
(lp46
sg18
Vbench/jquery-1.7.1.js
p47
sg20
L248235L
sa(dp48
g4
(lp49
(g6
F45.96881866455078
tp50
a(g8
F19.968652725219727
tp51
a(g10
F1.4873504638671875
tp52
a(g12
F0.06237077713012695
tp53
asg14
(lp54
L39533L
aL39537L
aL39535L
aL39535L
asg16
(lp55
sg18
Vbench/knockout-2.0.0.js
p56
sg20
L39817L
sa(dp57
g4
(lp58
(g6
F23.42085838317871
tp59
a(g8
F9.47425365447998
tp60
a(g10
F3.0469417572021484
tp61
a(g12
F0.04980921745300293
tp62
asg14
(lp63
L11853L
aL11871L
aL11853L
aL11853L
asg16
(lp64
sg18
Vbench/markermanager.js
p65
sg20
L29300L
satp66
.(V3.6.8
p0
(lp1
(lp2
(dp3
Vfilename
p4
Vbench/apiviewer.js
p5
sVsizes
p6
(lp7
L974318L
aL974321L
aL974318L
aL974318L
asVsize
p8
L976049L
sVmessages
p9
(lp10
sVtimes
p11
(lp12
(Vsimple_port
p13
F1176.5206813812256
tp14
a(Vjsmin_2_0_9
p15
F1064.96901512146
tp16
a(Vrjsmin
p17
F26.958656311035156
tp18
a(V_rjsmin
p19
F1.3576507568359375
tp20
asa(dp21
g4
Vbench/bootstrap.js
p22
sg6
(lp23
L27005L
aL27030L
aL27006L
aL27006L
asg8
L50212L
sg9
(lp24
sg11
(lp25
(g13
F48.97322654724121
tp26
a(g15
F18.406248092651367
tp27
a(g17
F6.9823503494262695
tp28
a(g19
F0.10841131210327148
tp29
asa(dp30
g4
Vbench/DateTimeShortcuts.js
p31
sg6
(lp32
L10488L
aL10517L
aL10489L
aL10489L
asg8
L18754L
sg9
(lp33
sg11
(lp34
(g13
F18.130850791931152
tp35
a(g15
F6.9419145584106445
tp36
a(g17
F1.909637451171875
tp37
a(g19
F0.030854225158691406
tp38
asa(dp39
g4
Vbench/jquery-1.7.1.js
p40
sg6
(lp41
L139170L
aL140054L
aL139170L
aL139170L
asg8
L248235L
sg9
(lp42
sg11
(lp43
(g13
F255.68959712982178
tp44
a(g15
F114.5925760269165
tp45
a(g17
F48.226141929626465
tp46
a(g19
F0.6839179992675781
tp47
asa(dp48
g4
Vbench/knockout-2.0.0.js
p49
sg6
(lp50
L39533L
aL39537L
aL39535L
aL39535L
asg8
L39817L
sg9
(lp51
sg11
(lp52
(g13
F47.49877452850342
tp53
a(g15
F20.151901245117188
tp54
a(g17
F1.487112045288086
tp55
a(g19
F0.06104922294616699
tp56
asa(dp57
g4
Vbench/markermanager.js
p58
sg6
(lp59
L11853L
aL11871L
aL11853L
aL11853L
asg8
L29300L
sg9
(lp60
sg11
(lp61
(g13
F24.019312858581543
tp62
a(g15
F9.367775917053223
tp63
a(g17
F2.992677688598633
tp64
a(g19
F0.04884767532348633
tp65
asatp66
.(V3.7.2
p0
(lp1
(lp2
(dp3
Vfilename
p4
Vbench/apiviewer.js
p5
sVsizes
p6
(lp7
I974318
aI974321
aI974318
aI974318
asVsize
p8
I976049
sVmessages
p9
(lp10
sVtimes
p11
(lp12
(Vsimple_port
p13
F1077.6994705200195
tp14
a(Vjsmin_2_0_9
p15
F1036.606740951538
tp16
a(Vrjsmin
p17
F26.55949592590332
tp18
a(V_rjsmin
p19
F1.3539314270019531
tp20
asa(dp21
g4
Vbench/bootstrap.js
p22
sg6
(lp23
I27005
aI27030
aI27006
aI27006
asg8
I50212
sg9
(lp24
sg11
(lp25
(g13
F44.70682144165039
tp26
a(g15
F17.77324676513672
tp27
a(g17
F6.741809844970703
tp28
a(g19
F0.1091313362121582
tp29
asa(dp30
g4
Vbench/DateTimeShortcuts.js
p31
sg6
(lp32
I10488
aI10517
aI10489
aI10489
asg8
I18754
sg9
(lp33
sg11
(lp34
(g13
F16.591691970825195
tp35
a(g15
F6.618404388427734
tp36
a(g17
F1.8610715866088867
tp37
a(g19
F0.03091740608215332
tp38
asa(dp39
g4
Vbench/jquery-1.7.1.js
p40
sg6
(lp41
I139170
aI140054
aI139170
aI139170
asg8
I248235
sg9
(lp42
sg11
(lp43
(g13
F233.1087350845337
tp44
a(g15
F110.93077659606934
tp45
a(g17
F47.3210334777832
tp46
a(g19
F0.681154727935791
tp47
asa(dp48
g4
Vbench/knockout-2.0.0.js
p49
sg6
(lp50
I39533
aI39537
aI39535
aI39535
asg8
I39817
sg9
(lp51
sg11
(lp52
(g13
F43.10338497161865
tp53
a(g15
F18.937110900878906
tp54
a(g17
F1.4403343200683594
tp55
a(g19
F0.06115984916687012
tp56
asa(dp57
g4
Vbench/markermanager.js
p58
sg6
(lp59
I11853
aI11871
aI11853
aI11853
asg8
I29300
sg9
(lp60
sg11
(lp61
(g13
F22.002267837524414
tp62
a(g15
F8.96916389465332
tp63
a(g17
F2.955174446105957
tp64
a(g19
F0.0492548942565918
tp65
asatp66
.