(S'2.7.18'
p0
(lp1
(lp2
(dp3
S'size'
p4
I976057
sS'filename'
p5
S'bench/apiviewer.js'
p6
sS'messages'
p7
(lp8
sS'times'
p9
(lp10
(S'simple_port'
p11
F1227.7230978012085
tp12
a(S'jsmin_2_0_9'
p13
F1129.0703058242798
tp14
a(S'rjsmin'
p15
F29.166603088378906
tp16
a(S'_rjsmin'
p17
F2.335190773010254
tp18
asS'sizes'
p19
(lp20
I974326
aI974329
aI974326
aI974326
asa(dp21
g4
I50212
sg5
S'bench/bootstrap.js'
p22
sg7
(lp23
sg9
(lp24
(g11
F49.80819225311279
tp25
a(g13
F21.143794059753418
tp26
a(g15
F7.228589057922363
tp27
a(g17
F0.14182090759277344
tp28
asg19
(lp29
I27005
aI27030
aI27006
aI27006
asa(dp30
g4
I18754
sg5
S'bench/DateTimeShortcuts.js'
p31
sg7
(lp32
sg9
(lp33
(g11
F18.439507484436035
tp34
a(g13
F7.97429084777832
tp35
a(g15
F1.903390884399414
tp36
a(g17
F0.04166007041931152
tp37
asg19
(lp38
I10488
aI10517
aI10489
aI10489
asa(dp39
g4
I248235
sg5
S'bench/jquery-1.7.1.js'
p40
sg7
(lp41
sg9
(lp42
(g11
F257.41939544677734
tp43
a(g13
F131.18939399719238
tp44
a(g15
F49.17290210723877
tp45
a(g17
F0.8844494819641113
tp46
asg19
(lp47
I139170
aI140054
aI139170
aI139170
asa(dp48
g4
I39817
sg5
S'bench/knockout-2.0.0.js'
p49
sg7
(lp50
sg9
(lp51
(g11
F49.80959892272949
tp52
a(g13
F23.673081398010254
tp53
a(g15
F1.479482650756836
tp54
a(g17
F0.09617114067077637
tp55
asg19
(lp56
I39533
aI39537
aI39535
aI39535
asa(dp57
g4
I29300
sg5
S'bench/markermanager.js'
p58
sg7
(lp59
sg9
(lp60
(g11
F24.480390548706055
tp61
a(g13
F10.735511779785156
tp62
a(g15
F3.0088186264038086
tp63
a(g17
F0.06620097160339355
tp64
asg19
(lp65
I11853
aI11871
aI11853
aI11853
asatp66
.(V3.10.15
p0
(lp1
(lp2
(dp3
Vfilename
p4
Vbench/apiviewer.js
p5
sVsizes
p6
(lp7
I974318
aI974321
aI974318
aI974318
asVsize
p8
I976049
sVmessages
p9
(lp10
sVtimes
p11
(lp12
(Vsimple_port
p13
F1008.3999156951904
tp14
a(Vjsmin_2_0_9
p15
F932.133674621582
tp16
a(Vrjsmin
p17
F30.06875514984131
tp18
a(V_rjsmin
p19
F3.2271385192871094
tp20
asa(dp21
g4
Vbench/bootstrap.js
p22
sg6
(lp23
I27005
aI27030
aI27006
aI27006
asg8
I50212
sg9
(lp24
sg11
(lp25
(g13
F42.55571365356445
tp26
a(g15
F16.686153411865234
tp27
a(g17
F7.428574562072754
tp28
a(g19
F0.1493692398071289
tp29
asa(dp30
g4
Vbench/DateTimeShortcuts.js
p31
sg6
(lp32
I10488
aI10517
aI10489
aI10489
asg8
I18754
sg9
(lp33
sg11
(lp34
(g13
F15.974664688110352
tp35
a(g15
F6.565761566162109
tp36
a(g17
F2.132248878479004
tp37
a(g19
F0.040125131607055664
tp38
asa(dp39
g4
Vbench/jquery-1.7.1.js
p40
sg6
(lp41
I139170
aI140054
aI139170
aI139170
asg8
I248235
sg9
(lp42
sg11
(lp43
(g13
F223.00498485565186
tp44
a(g15
F103.68037223815918
tp45
a(g17
F48.03464412689209
tp46
a(g19
F0.8678913116455078
tp47
asa(dp48
g4
Vbench/knockout-2.0.0.js
p49
sg6
(lp50
I39533
aI39537
aI39535
aI39535
asg8
I39817
sg9
(lp51
sg11
(lp52
(g13
F40.41488170623779
tp53
a(g15
F18.20065975189209
tp54
a(g17
F1.7533063888549805
tp55
a(g19
F0.08375978469848633
tp56
asa(dp57
g4
Vbench/markermanager.js
p58
sg6
(lp59
I11853
aI11871
aI11853
aI11853
asg8
I29300
sg9
(lp60
sg11
(lp61
(g13
F21.090078353881836
tp62
a(g15
F8.623886108398438
tp63
a(g17
F3.2350778579711914
tp64
a(g19
F0.06373143196105957
tp65
asatp66
.(V3.11.10
p0
(lp1
(lp2
(dp3
Vfilename
p4
Vbench/apiviewer.js
p5
sVsizes
p6
(lp7
I974318
aI974321
aI974318
aI974318
asVsize
p8
I976049
sVmessages
p9
(lp10
sVtimes
p11
(lp12
(Vsimple_port
p13
F481.0422897338867
tp14
a(Vjsmin_2_0_9
p15
F814.00306224823
tp16
a(Vrjsmin
p17
F27.423667907714844
tp18
a(V_rjsmin
p19
F2.9048681259155273
tp20
asa(dp21
g4
Vbench/bootstrap.js
p22
sg6
(lp23
I27005
aI27030
aI27006
aI27006
asg8
I50212
sg9
(lp24
sg11
(lp25
(g13
F18.66750717163086
tp26
a(g15
F11.071062088012695
tp27
a(g17
F6.128644943237305
tp28
a(g19
F0.13430356979370117
tp29
asa(dp30
g4
Vbench/DateTimeShortcuts.js
p31
sg6
(lp32
I10488
aI10517
aI10489
aI10489
asg8
I18754
sg9
(lp33
sg11
(lp34
(g13
F6.99915885925293
tp35
a(g15
F4.28624153137207
tp36
a(g17
F1.6150474548339844
tp37
a(g19
F0.03966784477233887
tp38
asa(dp39
g4
Vbench/jquery-1.7.1.js
p40
sg6
(lp41
I139170
aI140054
aI139170
aI139170
asg8
I248235
sg9
(lp42
sg11
(lp43
(g13
F98.8088846206665
tp44
a(g15
F74.69980716705322
tp45
a(g17
F39.72785472869873
tp46
a(g19
F0.8731341361999512
tp47
asa(dp48
g4
Vbench/knockout-2.0.0.js
p49
sg6
(lp50
I39533
aI39537
aI39535
aI39535
asg8
I39817
sg9
(lp51
sg11
(lp52
(g13
F16.59414768218994
tp53
a(g15
F11.750245094299316
tp54
a(g17
F1.282644271850586
tp55
a(g19
F0.0843355655670166
tp56
asa(dp57
g4
Vbench/markermanager.js
p58
sg6
(lp59
I11853
aI11871
aI11853
aI11853
asg8
I29300
sg9
(lp60
sg11
(lp61
(g13
F9.195947647094727
tp62
a(g15
F5.673646926879883
tp63
a(g17
F2.7286767959594727
tp64
a(g19
F0.0643622875213623
tp65
asatp66
.(V3.12.7
p0
(lp1
(lp2
(dp3
Vfilename
p4
Vbench/apiviewer.js
p5
sVsizes
p6
(lp7
I974318
aI974321
aI974318
aI974318
asVsize
p8
I976049
sVmessages
p9
(lp10
sVtimes
p11
(lp12
(Vsimple_port
p13
F348.3458995819092
tp14
a(Vjsmin_2_0_9
p15
F766.3373470306396
tp16
a(Vrjsmin
p17
F28.862929344177246
tp18
a(V_rjsmin
p19
F2.9404163360595703
tp20
asa(dp21
g4
Vbench/bootstrap.js
p22
sg6
(lp23
I27005
aI27030
aI27006
aI27006
asg8
I50212
sg9
(lp24
sg11
(lp25
(g13
F16.42904281616211
tp26
a(g15
F10.403037071228027
tp27
a(g17
F6.523776054382324
tp28
a(g19
F0.13500452041625977
tp29
asa(dp30
g4
Vbench/DateTimeShortcuts.js
p31
sg6
(lp32
I10488
aI10517
aI10489
aI10489
asg8
I18754
sg9
(lp33
sg11
(lp34
(g13
F6.3217878341674805
tp35
a(g15
F4.00698184967041
tp36
a(g17
F2.084493637084961
tp37
a(g19
F0.040735483169555664
tp38
asa(dp39
g4
Vbench/jquery-1.7.1.js
p40
sg6
(lp41
I139170
aI140054
aI139170
aI139170
asg8
I248235
sg9
(lp42
sg11
(lp43
(g13
F86.1182451248169
tp44
a(g15
F71.07293605804443
tp45
a(g17
F43.49973201751709
tp46
a(g19
F0.8755826950073242
tp47
asa(dp48
g4
Vbench/knockout-2.0.0.js
p49
sg6
(lp50
I39533
aI39537
aI39535
aI39535
asg8
I39817
sg9
(lp51
sg11
(lp52
(g13
F14.21666145324707
tp53
a(g15
F10.770297050476074
tp54
a(g17
F1.4149188995361328
tp55
a(g19
F0.08430004119873047
tp56
asa(dp57
g4
Vbench/markermanager.js
p58
sg6
(lp59
I11853
aI11871
aI11853
aI11853
asg8
I29300
sg9
(lp60
sg11
(lp61
(g13
F8.461332321166992
tp62
a(g15
F5.581164360046387
tp63
a(g17
F3.527355194091797
tp64
a(g19
F0.06475281715393066
tp65
asatp66
.(V3.13.0
p0
(lp1
(lp2
(dp3
Vfilename
p4
Vbench/apiviewer.js
p5
sVsizes
p6
(lp7
I974318
aI974321
aI974318
aI974318
asVsize
p8
I976049
sVmessages
p9
(lp10
sVtimes
p11
(lp12
(Vsimple_port
p13
F398.0609655380249
tp14
a(Vjsmin_2_0_9
p15
F819.3747282028198
tp16
a(Vrjsmin
p17
F27.59253978729248
tp18
a(V_rjsmin
p19
F2.9073238372802734
tp20
asa(dp21
g4
Vbench/bootstrap.js
p22
sg6
(lp23
I27005
aI27030
aI27006
aI27006
asg8
I50212
sg9
(lp24
sg11
(lp25
(g13
F18.177199363708496
tp26
a(g15
F11.906051635742188
tp27
a(g17
F6.499075889587402
tp28
a(g19
F0.13275861740112305
tp29
asa(dp30
g4
Vbench/DateTimeShortcuts.js
p31
sg6
(lp32
I10488
aI10517
aI10489
aI10489
asg8
I18754
sg9
(lp33
sg11
(lp34
(g13
F6.884884834289551
tp35
a(g15
F4.583406448364258
tp36
a(g17
F1.7077445983886719
tp37
a(g19
F0.03814291954040527
tp38
asa(dp39
g4
Vbench/jquery-1.7.1.js
p40
sg6
(lp41
I139170
aI140054
aI139170
aI139170
asg8
I248235
sg9
(lp42
sg11
(lp43
(g13
F96.46642208099365
tp44
a(g15
F79.07443046569824
tp45
a(g17
F42.41127967834473
tp46
a(g19
F0.8545708656311035
tp47
asa(dp48
g4
Vbench/knockout-2.0.0.js
p49
sg6
(lp50
I39533
aI39537
aI39535
aI39535
asg8
I39817
sg9
(lp51
sg11
(lp52
(g13
F15.998053550720215
tp53
a(g15
F12.726140022277832
tp54
a(g17
F1.3530492782592773
tp55
a(g19
F0.08392739295959473
tp56
asa(dp57
g4
Vbench/markermanager.js
p58
sg6
(lp59
I11853
aI11871
aI11853
aI11853
asg8
I29300
sg9
(lp60
sg11
(lp61
(g13
F9.077119827270508
tp62
a(g15
F6.132745742797852
tp63
a(g17
F2.6773452758789062
tp64
a(g19
F0.06241464614868164
tp65
asatp66
.(V3.6.15
p0
(lp1
(lp2
(dp3
Vfilename
p4
Vbench/apiviewer.js
p5
sVsizes
p6
(lp7
L974318L
aL974321L
aL974318L
aL974318L
asVsize
p8
L976049L
sVmessages
p9
(lp10
sVtimes
p11
(lp12
(Vsimple_port
p13
F1353.1908988952637
tp14
a(Vjsmin_2_0_9
p15
F1146.1516380310059
tp16
a(Vrjsmin
p17
F34.95972156524658
tp18
a(V_rjsmin
p19
F3.3884525299072266
tp20
asa(dp21
g4
Vbench/bootstrap.js
p22
sg6
(lp23
L27005L
aL27030L
aL27006L
aL27006L
asg8
L50212L
sg9
(lp24
sg11
(lp25
(g13
F56.50818347930908
tp26
a(g15
F22.649002075195312
tp27
a(g17
F8.3404541015625
tp28
a(g19
F0.13543367385864258
tp29
asa(dp30
g4
Vbench/DateTimeShortcuts.js
p31
sg6
(lp32
L10488L
aL10517L
aL10489L
aL10489L
asg8
L18754L
sg9
(lp33
sg11
(lp34
(g13
F20.98703384399414
tp35
a(g15
F8.64720344543457
tp36
a(g17
F2.187466621398926
tp37
a(g19
F0.042944908142089844
tp38
asa(dp39
g4
Vbench/jquery-1.7.1.js
p40
sg6
(lp41
L139170L
aL140054L
aL139170L
aL139170L
asg8
L248235L
sg9
(lp42
sg11
(lp43
(g13
F296.20580673217773
tp44
a(g15
F138.12787532806396
tp45
a(g17
F56.30075931549072
tp46
a(g19
F0.8792924880981445
tp47
asa(dp48
g4
Vbench/knockout-2.0.0.js
p49
sg6
(lp50
L39533L
aL39537L
aL39535L
aL39535L
asg8
L39817L
sg9
(lp51
sg11
(lp52
(g13
F54.18250560760498
tp53
a(g15
F24.531078338623047
tp54
a(g17
F2.36053466796875
tp55
a(g19
F0.08522248268127441
tp56
asa(dp57
g4
Vbench/markermanager.js
p58
sg6
(lp59
L11853L
aL11871L
aL11853L
aL11853L
asg8
L29300L
sg9
(lp60
sg11
(lp61
(g13
F27.898883819580078
tp62
a(g15
F11.818933486938477
tp63
a(g17
F3.558468818664551
tp64
a(g19
F0.06250691413879395
tp65
asatp66
.(V3.7.13
p0
(lp1
(lp2
(dp3
Vfilename
p4
Vbench/apiviewer.js
p5
sVsizes
p6
(lp7
I974318
aI974321
aI974318
aI974318
asVsize
p8
I976049
sVmessages
p9
(lp10
sVtimes
p11
(lp12
(Vsimple_port
p13
F1216.1343336105347
tp14
a(Vjsmin_2_0_9
p15
F1084.092617034912
tp16
a(Vrjsmin
p17
F31.54928684234619
tp18
a(V_rjsmin
p19
F3.2914161682128906
tp20
asa(dp21
g4
Vbench/bootstrap.js
p22
sg6
(lp23
I27005
aI27030
aI27006
aI27006
asg8
I50212
sg9
(lp24
sg11
(lp25
(g13
F50.34635066986084
tp26
a(g15
F20.749711990356445
tp27
a(g17
F7.409024238586426
tp28
a(g19
F0.13620615005493164
tp29
asa(dp30
g4
Vbench/DateTimeShortcuts.js
p31
sg6
(lp32
I10488
aI10517
aI10489
aI10489
asg8
I18754
sg9
(lp33
sg11
(lp34
(g13
F18.744373321533203
tp35
a(g15
F7.8144073486328125
tp36
a(g17
F2.0000457763671875
tp37
a(g19
F0.0390625
tp38
asa(dp39
g4
Vbench/jquery-1.7.1.js
p40
sg6
(lp41
I139170
aI140054
aI139170
aI139170
asg8
I248235
sg9
(lp42
sg11
(lp43
(g13
F262.91277408599854
tp44
a(g15
F126.3676404953003
tp45
a(g17
F49.24814701080322
tp46
a(g19
F0.8678245544433594
tp47
asa(dp48
g4
Vbench/knockout-2.0.0.js
p49
sg6
(lp50
I39533
aI39537
aI39535
aI39535
asg8
I39817
sg9
(lp51
sg11
(lp52
(g13
F48.58052730560303
tp53
a(g15
F22.22270965576172
tp54
a(g17
F1.537179946899414
tp55
a(g19
F0.08426332473754883
tp56
asa(dp57
g4
Vbench/markermanager.js
p58
sg6
(lp59
I11853
aI11871
aI11853
aI11853
asg8
I29300
sg9
(lp60
sg11
(lp61
(g13
F24.795150756835938
tp62
a(g15
F10.586714744567871
tp63
a(g17
F3.0557632446289062
tp64
a(g19
F0.0625758171081543
tp65
asatp66
.(V3.8.20
p0
(lp1
(lp2
(dp3
Vfilename
p4
Vbench/apiviewer.js
p5
sVsizes
p6
(lp7
I974318
aI974321
aI974318
aI974318
asVsize
p8
I976049
sVmessages
p9
(lp10
sVtimes
p11
(lp12
(Vsimple_port
p13
F1140.8032178878784
tp14
a(Vjsmin_2_0_9
p15
F1021.3289022445679
tp16
a(Vrjsmin
p17
F30.78939914703369
tp18
a(V_rjsmin
p19
F3.3286333084106445
tp20
asa(dp21
g4
Vbench/bootstrap.js
p22
sg6
(lp23
I27005
aI27030
aI27006
aI27006
asg8
I50212
sg9
(lp24
sg11
(lp25
(g13
F47.01688289642334
tp26
a(g15
F18.285346031188965
tp27
a(g17
F7.182860374450684
tp28
a(g19
F0.13676166534423828
tp29
asa(dp30
g4
Vbench/DateTimeShortcuts.js
p31
sg6
(lp32
I10488
aI10517
aI10489
aI10489
asg8
I18754
sg9
(lp33
sg11
(lp34
(g13
F17.35854148864746
tp35
a(g15
F6.9304704666137695
tp36
a(g17
F1.9266128540039062
tp37
a(g19
F0.037249088287353516
tp38
asa(dp39
g4
Vbench/jquery-1.7.1.js
p40
sg6
(lp41
I139170
aI140054
aI139170
aI139170
asg8
I248235
sg9
(lp42
sg11
(lp43
(g13
F245.09360790252686
tp44
a(g15
F112.64350414276123
tp45
a(g17
F48.33853244781494
tp46
a(g19
F0.8345150947570801
tp47
asa(dp48
g4
Vbench/knockout-2.0.0.js
p49
sg6
(lp50
I39533
aI39537
aI39535
aI39535
asg8
I39817
sg9
(lp51
sg11
(lp52
(g13
F45.75088024139404
tp53
a(g15
F20.064592361450195
tp54
a(g17
F1.5006065368652344
tp55
a(g19
F0.08403611183166504
tp56
asa(dp57
g4
Vbench/markermanager.js
p58
sg6
(lp59
I11853
aI11871
aI11853
aI11853
asg8
I29300
sg9
(lp60
sg11
(lp61
(g13
F22.981977462768555
tp62
a(g15
F9.483098983764648
tp63
a(g17
F3.008580207824707
tp64
a(g19
F0.061218976974487305
tp65
asatp66
.(V3.9.20
p0
(lp1
(lp2
(dp3
Vfilename
p4
Vbench/apiviewer.js
p5
sVsizes
p6
(lp7
I974318
aI974321
aI974318
aI974318
asVsize
p8
I976049
sVmessages
p9
(lp10
sVtimes
p11
(lp12
(Vsimple_port
p13
F1110.9709739685059
tp14
a(Vjsmin_2_0_9
p15
F970.8145618438721
tp16
a(Vrjsmin
p17
F31.061506271362305
tp18
a(V_rjsmin
p19
F2.916073799133301
tp20
asa(dp21
g4
Vbench/bootstrap.js
p22
sg6
(lp23
I27005
aI27030
aI27006
aI27006
asg8
I50212
sg9
(lp24
sg11
(lp25
(g13
F45.12360095977783
tp26
a(g15
F16.762685775756836
tp27
a(g17
F7.003307342529297
tp28
a(g19
F0.1338362693786621
tp29
asa(dp30
g4
Vbench/DateTimeShortcuts.js
p31
sg6
(lp32
I10488
aI10517
aI10489
aI10489
asg8
I18754
sg9
(lp33
sg11
(lp34
(g13
F16.767168045043945
tp35
a(g15
F6.3674211502075195
tp36
a(g17
F1.8663406372070312
tp37
a(g19
F0.0371401309967041
tp38
asa(dp39
g4
Vbench/jquery-1.7.1.js
p40
sg6
(lp41
I139170
aI140054
aI139170
aI139170
asg8
I248235
sg9
(lp42
sg11
(lp43
(g13
F237.0384693145752
tp44
a(g15
F106.42116069793701
tp45
a(g17
F47.08664417266846
tp46
a(g19
F0.8360052108764648
tp47
asa(dp48
g4
Vbench/knockout-2.0.0.js
p49
sg6
(lp50
I39533
aI39537
aI39535
aI39535
asg8
I39817
sg9
(lp51
sg11
(lp52
(g13
F44.19536590576172
tp53
a(g15
F18.4450626373291
tp54
a(g17
F1.4586687088012695
tp55
a(g19
F0.08453726768493652
tp56
asa(dp57
g4
Vbench/markermanager.js
p58
sg6
(lp59
I11853
aI11871
aI11853
aI11853
asg8
I29300
sg9
(lp60
sg11
(lp61
(g13
F22.147512435913086
tp62
a(g15
F8.495378494262695
tp63
a(g17
F2.9674768447875977
tp64
a(g19
F0.06135153770446777
tp65
asatp66
.